
program.debug_bfs.elf:     file format elf32-littleriscv


Disassembly of section .text:

00000000 <crt>:

.global crt
.section .text.prologue, "ax"
.align 4
crt:
	nop
   0:	00000013          	addi	zero,zero,0
	la ra, exit
   4:	00000097          	auipc	ra,0x0
   8:	09c08093          	addi	ra,ra,156 # a0 <exit>
	la sp, _sp
   c:	00010117          	auipc	sp,0x10
  10:	ff410113          	addi	sp,sp,-12 # 10000 <_sp>
	mv s0, sp
  14:	00010413          	addi	s0,sp,0
	la gp, __global_pointer$
  18:	00001197          	auipc	gp,0x1
  1c:	26818193          	addi	gp,gp,616 # 1280 <__global_pointer$>
	li tp, 0
  20:	00000213          	addi	tp,zero,0
	li t0, 0
  24:	00000293          	addi	t0,zero,0
	li t1, 0
  28:	00000313          	addi	t1,zero,0
	li t2, 0
  2c:	00000393          	addi	t2,zero,0
	li s1, 0
  30:	00000493          	addi	s1,zero,0
	li a0, 0
  34:	00000513          	addi	a0,zero,0
	li a1, 0
  38:	00000593          	addi	a1,zero,0
	li a2, 0
  3c:	00000613          	addi	a2,zero,0
	li a3, 0
  40:	00000693          	addi	a3,zero,0
	li a4, 0
  44:	00000713          	addi	a4,zero,0
	li a5, 0
  48:	00000793          	addi	a5,zero,0
	li a6, 0
  4c:	00000813          	addi	a6,zero,0
	li a7, 0
  50:	00000893          	addi	a7,zero,0
	li s2, 0
  54:	00000913          	addi	s2,zero,0
	li s3, 0
  58:	00000993          	addi	s3,zero,0
	li s4, 0
  5c:	00000a13          	addi	s4,zero,0
	li s5, 0
  60:	00000a93          	addi	s5,zero,0
	li s6, 0
  64:	00000b13          	addi	s6,zero,0
	li s7, 0
  68:	00000b93          	addi	s7,zero,0
	li s8, 0
  6c:	00000c13          	addi	s8,zero,0
	li s9, 0
  70:	00000c93          	addi	s9,zero,0
	li s10, 0
  74:	00000d13          	addi	s10,zero,0
	li s11, 0
  78:	00000d93          	addi	s11,zero,0
	li t3, 0
  7c:	00000e13          	addi	t3,zero,0
	li t4, 0
  80:	00000e93          	addi	t4,zero,0
	li t5, 0
  84:	00000f13          	addi	t5,zero,0
	li t6, 0
  88:	00000f93          	addi	t6,zero,0
	j main
  8c:	7dc0006f          	jal	zero,868 <main>
	...

000000a0 <exit>:

.global exit
.section .text
.align 4
exit:
	la sp, _sp
  a0:	00010117          	auipc	sp,0x10
  a4:	f6010113          	addi	sp,sp,-160 # 10000 <_sp>
	sw a0, -8(sp)
  a8:	fea12c23          	sw	a0,-8(sp)
	nop
  ac:	00000013          	addi	zero,zero,0
	wfi
  b0:	10500073          	wfi

000000b4 <tj_free>:
} Header;
static Header base; //empty list to get started
static Header *freep = NULL; //start of the free list


void tj_free(void *mem) {
  b4:	fd010113          	addi	sp,sp,-48
  b8:	02112623          	sw	ra,44(sp)
  bc:	02812423          	sw	s0,40(sp)
  c0:	03010413          	addi	s0,sp,48
  c4:	fca42e23          	sw	a0,-36(s0)
	//sanity check, we don't want to free memory that's not
	//in the heap
	if (mem < (void *)heap || mem > (void *)(heap + sizeof(heap)))
  c8:	fdc42703          	lw	a4,-36(s0)
  cc:	000017b7          	lui	a5,0x1
  d0:	b5878793          	addi	a5,a5,-1192 # b58 <heap>
  d4:	00f76a63          	bltu	a4,a5,e8 <tj_free+0x34>
  d8:	000057b7          	lui	a5,0x5
  dc:	b5878793          	addi	a5,a5,-1192 # 4b58 <base>
  e0:	fdc42703          	lw	a4,-36(s0)
  e4:	00e7f863          	bgeu	a5,a4,f4 <tj_free+0x40>
		exit(1);
  e8:	00100513          	addi	a0,zero,1
  ec:	00000097          	auipc	ra,0x0
  f0:	fb4080e7          	jalr	ra,-76(ra) # a0 <exit>

	Header *bp, *p;
	bp = (Header *)mem - 1; //point to block header
  f4:	fdc42783          	lw	a5,-36(s0)
  f8:	ff878793          	addi	a5,a5,-8
  fc:	fef42423          	sw	a5,-24(s0)
	//scan the free list to see where the current block should sit in between
	for (p = freep; !(bp > p && bp < p->next); p = p->next) 
 100:	000057b7          	lui	a5,0x5
 104:	b607a783          	lw	a5,-1184(a5) # 4b60 <freep>
 108:	fef42623          	sw	a5,-20(s0)
 10c:	03c0006f          	jal	zero,148 <tj_free+0x94>
		// self wrapped free list with only one entry
		//                  or you are just at the very beginning/end
		if (p >= p->next && (bp > p || bp < p->next))
 110:	fec42783          	lw	a5,-20(s0)
 114:	0007a783          	lw	a5,0(a5)
 118:	fec42703          	lw	a4,-20(s0)
 11c:	02f76063          	bltu	a4,a5,13c <tj_free+0x88>
 120:	fe842703          	lw	a4,-24(s0)
 124:	fec42783          	lw	a5,-20(s0)
 128:	02e7ee63          	bltu	a5,a4,164 <tj_free+0xb0>
 12c:	fec42783          	lw	a5,-20(s0)
 130:	0007a783          	lw	a5,0(a5)
 134:	fe842703          	lw	a4,-24(s0)
 138:	02f76663          	bltu	a4,a5,164 <tj_free+0xb0>
	for (p = freep; !(bp > p && bp < p->next); p = p->next) 
 13c:	fec42783          	lw	a5,-20(s0)
 140:	0007a783          	lw	a5,0(a5)
 144:	fef42623          	sw	a5,-20(s0)
 148:	fe842703          	lw	a4,-24(s0)
 14c:	fec42783          	lw	a5,-20(s0)
 150:	fce7f0e3          	bgeu	a5,a4,110 <tj_free+0x5c>
 154:	fec42783          	lw	a5,-20(s0)
 158:	0007a783          	lw	a5,0(a5)
 15c:	fe842703          	lw	a4,-24(s0)
 160:	faf778e3          	bgeu	a4,a5,110 <tj_free+0x5c>
			break; //freed block at start of end of the arena
		//we can merge the 2 free blocks if they are adjacent to each other
		//or we just can append a new entry into the free list
	if (bp + bp->size == p->next) { //join to upper nbr
 164:	fe842783          	lw	a5,-24(s0)
 168:	0047a783          	lw	a5,4(a5)
 16c:	00379793          	slli	a5,a5,0x3
 170:	fe842703          	lw	a4,-24(s0)
 174:	00f70733          	add	a4,a4,a5
 178:	fec42783          	lw	a5,-20(s0)
 17c:	0007a783          	lw	a5,0(a5)
 180:	02f71e63          	bne	a4,a5,1bc <tj_free+0x108>
		//merge if exactly adjacent
		bp->size += p->next->size;
 184:	fe842783          	lw	a5,-24(s0)
 188:	0047a703          	lw	a4,4(a5)
 18c:	fec42783          	lw	a5,-20(s0)
 190:	0007a783          	lw	a5,0(a5)
 194:	0047a783          	lw	a5,4(a5)
 198:	00f70733          	add	a4,a4,a5
 19c:	fe842783          	lw	a5,-24(s0)
 1a0:	00e7a223          	sw	a4,4(a5)
		bp->next = p->next->next;
 1a4:	fec42783          	lw	a5,-20(s0)
 1a8:	0007a783          	lw	a5,0(a5)
 1ac:	0007a703          	lw	a4,0(a5)
 1b0:	fe842783          	lw	a5,-24(s0)
 1b4:	00e7a023          	sw	a4,0(a5)
 1b8:	0140006f          	jal	zero,1cc <tj_free+0x118>
	} else
		bp->next = p->next; //insert bp after p in the linked list
 1bc:	fec42783          	lw	a5,-20(s0)
 1c0:	0007a703          	lw	a4,0(a5)
 1c4:	fe842783          	lw	a5,-24(s0)
 1c8:	00e7a023          	sw	a4,0(a5)
		//if p is freep which is base, then this will make the newly
		//allocated block point to base

	if (p + p->size == bp) { //join to lower nbr
 1cc:	fec42783          	lw	a5,-20(s0)
 1d0:	0047a783          	lw	a5,4(a5)
 1d4:	00379793          	slli	a5,a5,0x3
 1d8:	fec42703          	lw	a4,-20(s0)
 1dc:	00f707b3          	add	a5,a4,a5
 1e0:	fe842703          	lw	a4,-24(s0)
 1e4:	02f71a63          	bne	a4,a5,218 <tj_free+0x164>
		//merge if exactly adjacent
		p->size += bp->size;
 1e8:	fec42783          	lw	a5,-20(s0)
 1ec:	0047a703          	lw	a4,4(a5)
 1f0:	fe842783          	lw	a5,-24(s0)
 1f4:	0047a783          	lw	a5,4(a5)
 1f8:	00f70733          	add	a4,a4,a5
 1fc:	fec42783          	lw	a5,-20(s0)
 200:	00e7a223          	sw	a4,4(a5)
		p->next = bp->next;
 204:	fe842783          	lw	a5,-24(s0)
 208:	0007a703          	lw	a4,0(a5)
 20c:	fec42783          	lw	a5,-20(s0)
 210:	00e7a023          	sw	a4,0(a5)
 214:	0100006f          	jal	zero,224 <tj_free+0x170>
	} else //or just append to linked list
		p->next = bp; //again, if the free list is just the base
 218:	fec42783          	lw	a5,-20(s0)
 21c:	fe842703          	lw	a4,-24(s0)
 220:	00e7a023          	sw	a4,0(a5)
		//then effectively we just created a new entry
		//and make it point to the base which has a size of 0
	freep = p;
 224:	000057b7          	lui	a5,0x5
 228:	fec42703          	lw	a4,-20(s0)
 22c:	b6e7a023          	sw	a4,-1184(a5) # 4b60 <freep>
}
 230:	00000013          	addi	zero,zero,0
 234:	02c12083          	lw	ra,44(sp)
 238:	02812403          	lw	s0,40(sp)
 23c:	03010113          	addi	sp,sp,48
 240:	00008067          	jalr	zero,0(ra)

00000244 <getmoremem>:

static Header* getmoremem(unsigned int total_size) {
 244:	fd010113          	addi	sp,sp,-48
 248:	02112623          	sw	ra,44(sp)
 24c:	02812423          	sw	s0,40(sp)
 250:	03010413          	addi	s0,sp,48
 254:	fca42e23          	sw	a0,-36(s0)
	if (avail_mem < total_size) return NULL; //gg, we ran out of mem :P
 258:	000017b7          	lui	a5,0x1
 25c:	aa47a783          	lw	a5,-1372(a5) # aa4 <avail_mem>
 260:	fdc42703          	lw	a4,-36(s0)
 264:	00e7f663          	bgeu	a5,a4,270 <getmoremem+0x2c>
 268:	00000793          	addi	a5,zero,0
 26c:	0700006f          	jal	zero,2dc <getmoremem+0x98>
	Header* up = (Header *)next_index;
 270:	000017b7          	lui	a5,0x1
 274:	aa07a783          	lw	a5,-1376(a5) # aa0 <next_index>
 278:	fef42623          	sw	a5,-20(s0)
	next_index += total_size; //allocate the block
 27c:	000017b7          	lui	a5,0x1
 280:	aa07a703          	lw	a4,-1376(a5) # aa0 <next_index>
 284:	fdc42783          	lw	a5,-36(s0)
 288:	00f70733          	add	a4,a4,a5
 28c:	000017b7          	lui	a5,0x1
 290:	aae7a023          	sw	a4,-1376(a5) # aa0 <next_index>
	avail_mem -= total_size; //deduct from avail mem;
 294:	000017b7          	lui	a5,0x1
 298:	aa47a703          	lw	a4,-1372(a5) # aa4 <avail_mem>
 29c:	fdc42783          	lw	a5,-36(s0)
 2a0:	40f70733          	sub	a4,a4,a5
 2a4:	000017b7          	lui	a5,0x1
 2a8:	aae7a223          	sw	a4,-1372(a5) # aa4 <avail_mem>
	up->size = total_size - sizeof(Header); //set the size right
 2ac:	fdc42783          	lw	a5,-36(s0)
 2b0:	ff878713          	addi	a4,a5,-8
 2b4:	fec42783          	lw	a5,-20(s0)
 2b8:	00e7a223          	sw	a4,4(a5)
	tj_free((void *)(++up)); //append the new block to the free list first
 2bc:	fec42783          	lw	a5,-20(s0)
 2c0:	00878793          	addi	a5,a5,8
 2c4:	fef42623          	sw	a5,-20(s0)
 2c8:	fec42503          	lw	a0,-20(s0)
 2cc:	00000097          	auipc	ra,0x0
 2d0:	de8080e7          	jalr	ra,-536(ra) # b4 <tj_free>
	return freep;
 2d4:	000057b7          	lui	a5,0x5
 2d8:	b607a783          	lw	a5,-1184(a5) # 4b60 <freep>
}
 2dc:	00078513          	addi	a0,a5,0
 2e0:	02c12083          	lw	ra,44(sp)
 2e4:	02812403          	lw	s0,40(sp)
 2e8:	03010113          	addi	sp,sp,48
 2ec:	00008067          	jalr	zero,0(ra)

000002f0 <tj_malloc>:

void *tj_malloc(unsigned int size) {
 2f0:	fd010113          	addi	sp,sp,-48
 2f4:	02112623          	sw	ra,44(sp)
 2f8:	02812423          	sw	s0,40(sp)
 2fc:	03010413          	addi	s0,sp,48
 300:	fca42e23          	sw	a0,-36(s0)
	//sanity check, so that you don't blow the memory space
	if (size > sizeof(heap)) return NULL;
 304:	fdc42703          	lw	a4,-36(s0)
 308:	000047b7          	lui	a5,0x4
 30c:	00e7f663          	bgeu	a5,a4,318 <tj_malloc+0x28>
 310:	00000793          	addi	a5,zero,0
 314:	15c0006f          	jal	zero,470 <tj_malloc+0x180>
	//we want strict word alignment just to make things easier
	//and so that we don't have improper alignment issues
	if ((size & 3) != 0) {
 318:	fdc42783          	lw	a5,-36(s0)
 31c:	0037f793          	andi	a5,a5,3
 320:	00078a63          	beq	a5,zero,334 <tj_malloc+0x44>
		size = size + 4 - (size & 3);
 324:	fdc42783          	lw	a5,-36(s0)
 328:	ffc7f793          	andi	a5,a5,-4
 32c:	00478793          	addi	a5,a5,4 # 4004 <__global_pointer$+0x2d84>
 330:	fcf42e23          	sw	a5,-36(s0)
	}

	//we want to build a linked list of the existing blocks and free blocks
	Header *p, *prevp; //iterators
	
	unsigned int total_size = size + sizeof(Header); //need to include the header size as well
 334:	fdc42783          	lw	a5,-36(s0)
 338:	00878793          	addi	a5,a5,8
 33c:	fef42223          	sw	a5,-28(s0)
	//check the linked list
	prevp = freep;
 340:	000057b7          	lui	a5,0x5
 344:	b607a783          	lw	a5,-1184(a5) # 4b60 <freep>
 348:	fef42423          	sw	a5,-24(s0)
	//if there's no linked list yet
	if (prevp == NULL) {
 34c:	fe842783          	lw	a5,-24(s0)
 350:	02079e63          	bne	a5,zero,38c <tj_malloc+0x9c>
		prevp = &base;
 354:	000057b7          	lui	a5,0x5
 358:	b5878793          	addi	a5,a5,-1192 # 4b58 <base>
 35c:	fef42423          	sw	a5,-24(s0)
		freep = prevp;
 360:	000057b7          	lui	a5,0x5
 364:	fe842703          	lw	a4,-24(s0)
 368:	b6e7a023          	sw	a4,-1184(a5) # 4b60 <freep>
		base.next = freep;
 36c:	000057b7          	lui	a5,0x5
 370:	b607a703          	lw	a4,-1184(a5) # 4b60 <freep>
 374:	000057b7          	lui	a5,0x5
 378:	b5878793          	addi	a5,a5,-1192 # 4b58 <base>
 37c:	00e7a023          	sw	a4,0(a5)
		base.size = 0;
 380:	000057b7          	lui	a5,0x5
 384:	b5878793          	addi	a5,a5,-1192 # 4b58 <base>
 388:	0007a223          	sw	zero,4(a5)
	}
	//traverse through the linked list, note there's no stopping condition
	for (p = prevp->next; ;prevp = p, p = p->next) {
 38c:	fe842783          	lw	a5,-24(s0)
 390:	0007a783          	lw	a5,0(a5)
 394:	fef42623          	sw	a5,-20(s0)
		if (p->size >= size) { //big enough
 398:	fec42783          	lw	a5,-20(s0)
 39c:	0047a783          	lw	a5,4(a5)
 3a0:	fdc42703          	lw	a4,-36(s0)
 3a4:	08e7e263          	bltu	a5,a4,428 <tj_malloc+0x138>
			if (p->size == size) // exact size
 3a8:	fec42783          	lw	a5,-20(s0)
 3ac:	0047a783          	lw	a5,4(a5)
 3b0:	fdc42703          	lw	a4,-36(s0)
 3b4:	00f71c63          	bne	a4,a5,3cc <tj_malloc+0xdc>
				prevp->next = p->next; // just return that block
 3b8:	fec42783          	lw	a5,-20(s0)
 3bc:	0007a703          	lw	a4,0(a5)
 3c0:	fe842783          	lw	a5,-24(s0)
 3c4:	00e7a023          	sw	a4,0(a5)
 3c8:	0400006f          	jal	zero,408 <tj_malloc+0x118>
			else {
				p->size -= total_size; //break up the block
 3cc:	fec42783          	lw	a5,-20(s0)
 3d0:	0047a703          	lw	a4,4(a5)
 3d4:	fe442783          	lw	a5,-28(s0)
 3d8:	40f70733          	sub	a4,a4,a5
 3dc:	fec42783          	lw	a5,-20(s0)
 3e0:	00e7a223          	sw	a4,4(a5)
				p += p->size;
 3e4:	fec42783          	lw	a5,-20(s0)
 3e8:	0047a783          	lw	a5,4(a5)
 3ec:	00379793          	slli	a5,a5,0x3
 3f0:	fec42703          	lw	a4,-20(s0)
 3f4:	00f707b3          	add	a5,a4,a5
 3f8:	fef42623          	sw	a5,-20(s0)
				p->size = size;
 3fc:	fec42783          	lw	a5,-20(s0)
 400:	fdc42703          	lw	a4,-36(s0)
 404:	00e7a223          	sw	a4,4(a5)
			}
			freep = prevp;
 408:	000057b7          	lui	a5,0x5
 40c:	fe842703          	lw	a4,-24(s0)
 410:	b6e7a023          	sw	a4,-1184(a5) # 4b60 <freep>
#ifdef DEBUG
			printf("returned pointer is %i\n", (int)p + 1);
#endif
			return (void *)(++p);
 414:	fec42783          	lw	a5,-20(s0)
 418:	00878793          	addi	a5,a5,8
 41c:	fef42623          	sw	a5,-20(s0)
 420:	fec42783          	lw	a5,-20(s0)
 424:	04c0006f          	jal	zero,470 <tj_malloc+0x180>
		}
		if (p == freep) //wrapped around free list
 428:	000057b7          	lui	a5,0x5
 42c:	b607a783          	lw	a5,-1184(a5) # 4b60 <freep>
 430:	fec42703          	lw	a4,-20(s0)
 434:	02f71263          	bne	a4,a5,458 <tj_malloc+0x168>
			if ((p = getmoremem(total_size)) == NULL) //if the heap runs out
 438:	fe442503          	lw	a0,-28(s0)
 43c:	00000097          	auipc	ra,0x0
 440:	e08080e7          	jalr	ra,-504(ra) # 244 <getmoremem>
 444:	fea42623          	sw	a0,-20(s0)
 448:	fec42783          	lw	a5,-20(s0)
 44c:	00079663          	bne	a5,zero,458 <tj_malloc+0x168>
				return NULL; //well, you got nothing left, gg
 450:	00000793          	addi	a5,zero,0
 454:	01c0006f          	jal	zero,470 <tj_malloc+0x180>
	for (p = prevp->next; ;prevp = p, p = p->next) {
 458:	fec42783          	lw	a5,-20(s0)
 45c:	fef42423          	sw	a5,-24(s0)
 460:	fec42783          	lw	a5,-20(s0)
 464:	0007a783          	lw	a5,0(a5)
 468:	fef42623          	sw	a5,-20(s0)
		if (p->size >= size) { //big enough
 46c:	f2dff06f          	jal	zero,398 <tj_malloc+0xa8>
	}
}
 470:	00078513          	addi	a0,a5,0
 474:	02c12083          	lw	ra,44(sp)
 478:	02812403          	lw	s0,40(sp)
 47c:	03010113          	addi	sp,sp,48
 480:	00008067          	jalr	zero,0(ra)

00000484 <tj_calloc>:

void *tj_calloc(unsigned int size) {
 484:	fd010113          	addi	sp,sp,-48
 488:	02112623          	sw	ra,44(sp)
 48c:	02812423          	sw	s0,40(sp)
 490:	03010413          	addi	s0,sp,48
 494:	fca42e23          	sw	a0,-36(s0)
	void *mem = tj_malloc(size);
 498:	fdc42503          	lw	a0,-36(s0)
 49c:	00000097          	auipc	ra,0x0
 4a0:	e54080e7          	jalr	ra,-428(ra) # 2f0 <tj_malloc>
 4a4:	fea42623          	sw	a0,-20(s0)
	memset(mem, 0, size);
 4a8:	fdc42603          	lw	a2,-36(s0)
 4ac:	00000593          	addi	a1,zero,0
 4b0:	fec42503          	lw	a0,-20(s0)
 4b4:	00000097          	auipc	ra,0x0
 4b8:	4ec080e7          	jalr	ra,1260(ra) # 9a0 <memset>
	return mem;
 4bc:	fec42783          	lw	a5,-20(s0)
}
 4c0:	00078513          	addi	a0,a5,0
 4c4:	02c12083          	lw	ra,44(sp)
 4c8:	02812403          	lw	s0,40(sp)
 4cc:	03010113          	addi	sp,sp,48
 4d0:	00008067          	jalr	zero,0(ra)

000004d4 <insert>:
//vertex count
int vertexCount = 0;

//queue functions

void insert(int data) {
 4d4:	fe010113          	addi	sp,sp,-32
 4d8:	00812e23          	sw	s0,28(sp)
 4dc:	02010413          	addi	s0,sp,32
 4e0:	fea42623          	sw	a0,-20(s0)
   queue[++rear] = data;
 4e4:	000017b7          	lui	a5,0x1
 4e8:	aa87a783          	lw	a5,-1368(a5) # aa8 <rear>
 4ec:	00178713          	addi	a4,a5,1
 4f0:	000017b7          	lui	a5,0x1
 4f4:	aae7a423          	sw	a4,-1368(a5) # aa8 <rear>
 4f8:	000017b7          	lui	a5,0x1
 4fc:	aa87a783          	lw	a5,-1368(a5) # aa8 <rear>
 500:	00001737          	lui	a4,0x1
 504:	acc70713          	addi	a4,a4,-1332 # acc <queue>
 508:	00279793          	slli	a5,a5,0x2
 50c:	00f707b3          	add	a5,a4,a5
 510:	fec42703          	lw	a4,-20(s0)
 514:	00e7a023          	sw	a4,0(a5)
   queueItemCount++;
 518:	000017b7          	lui	a5,0x1
 51c:	ac47a783          	lw	a5,-1340(a5) # ac4 <queueItemCount>
 520:	00178713          	addi	a4,a5,1
 524:	000017b7          	lui	a5,0x1
 528:	ace7a223          	sw	a4,-1340(a5) # ac4 <queueItemCount>
}
 52c:	00000013          	addi	zero,zero,0
 530:	01c12403          	lw	s0,28(sp)
 534:	02010113          	addi	sp,sp,32
 538:	00008067          	jalr	zero,0(ra)

0000053c <removeData>:

int removeData() {
 53c:	ff010113          	addi	sp,sp,-16
 540:	00812623          	sw	s0,12(sp)
 544:	01010413          	addi	s0,sp,16
   queueItemCount--;
 548:	000017b7          	lui	a5,0x1
 54c:	ac47a783          	lw	a5,-1340(a5) # ac4 <queueItemCount>
 550:	fff78713          	addi	a4,a5,-1
 554:	000017b7          	lui	a5,0x1
 558:	ace7a223          	sw	a4,-1340(a5) # ac4 <queueItemCount>
   return queue[front++]; 
 55c:	000017b7          	lui	a5,0x1
 560:	ac07a783          	lw	a5,-1344(a5) # ac0 <front>
 564:	00178693          	addi	a3,a5,1
 568:	00001737          	lui	a4,0x1
 56c:	acd72023          	sw	a3,-1344(a4) # ac0 <front>
 570:	00001737          	lui	a4,0x1
 574:	acc70713          	addi	a4,a4,-1332 # acc <queue>
 578:	00279793          	slli	a5,a5,0x2
 57c:	00f707b3          	add	a5,a4,a5
 580:	0007a783          	lw	a5,0(a5)
}
 584:	00078513          	addi	a0,a5,0
 588:	00c12403          	lw	s0,12(sp)
 58c:	01010113          	addi	sp,sp,16
 590:	00008067          	jalr	zero,0(ra)

00000594 <isQueueEmpty>:

bool isQueueEmpty() {
 594:	ff010113          	addi	sp,sp,-16
 598:	00812623          	sw	s0,12(sp)
 59c:	01010413          	addi	s0,sp,16
   return queueItemCount == 0;
 5a0:	000017b7          	lui	a5,0x1
 5a4:	ac47a783          	lw	a5,-1340(a5) # ac4 <queueItemCount>
 5a8:	0017b793          	sltiu	a5,a5,1
 5ac:	0ff7f793          	andi	a5,a5,255
}
 5b0:	00078513          	addi	a0,a5,0
 5b4:	00c12403          	lw	s0,12(sp)
 5b8:	01010113          	addi	sp,sp,16
 5bc:	00008067          	jalr	zero,0(ra)

000005c0 <addVertex>:

//graph functions

//add vertex to the vertex list
void addVertex(char label) {
 5c0:	fd010113          	addi	sp,sp,-48
 5c4:	02112623          	sw	ra,44(sp)
 5c8:	02812423          	sw	s0,40(sp)
 5cc:	03010413          	addi	s0,sp,48
 5d0:	00050793          	addi	a5,a0,0
 5d4:	fcf40fa3          	sb	a5,-33(s0)
   struct Vertex* vertex = (struct Vertex*) tj_malloc(sizeof(struct Vertex));
 5d8:	00200513          	addi	a0,zero,2
 5dc:	00000097          	auipc	ra,0x0
 5e0:	d14080e7          	jalr	ra,-748(ra) # 2f0 <tj_malloc>
 5e4:	fea42623          	sw	a0,-20(s0)
   vertex->label = label;  
 5e8:	fec42783          	lw	a5,-20(s0)
 5ec:	fdf44703          	lbu	a4,-33(s0)
 5f0:	00e78023          	sb	a4,0(a5)
   vertex->visited = false;     
 5f4:	fec42783          	lw	a5,-20(s0)
 5f8:	000780a3          	sb	zero,1(a5)
   lstVertices[vertexCount++] = vertex;
 5fc:	000017b7          	lui	a5,0x1
 600:	ac87a783          	lw	a5,-1336(a5) # ac8 <vertexCount>
 604:	00178693          	addi	a3,a5,1
 608:	00001737          	lui	a4,0x1
 60c:	acd72423          	sw	a3,-1336(a4) # ac8 <vertexCount>
 610:	00001737          	lui	a4,0x1
 614:	ae070713          	addi	a4,a4,-1312 # ae0 <lstVertices>
 618:	00279793          	slli	a5,a5,0x2
 61c:	00f707b3          	add	a5,a4,a5
 620:	fec42703          	lw	a4,-20(s0)
 624:	00e7a023          	sw	a4,0(a5)
}
 628:	00000013          	addi	zero,zero,0
 62c:	02c12083          	lw	ra,44(sp)
 630:	02812403          	lw	s0,40(sp)
 634:	03010113          	addi	sp,sp,48
 638:	00008067          	jalr	zero,0(ra)

0000063c <addEdge>:

//add edge to edge array
void addEdge(int start,int end) {
 63c:	fe010113          	addi	sp,sp,-32
 640:	00812e23          	sw	s0,28(sp)
 644:	02010413          	addi	s0,sp,32
 648:	fea42623          	sw	a0,-20(s0)
 64c:	feb42423          	sw	a1,-24(s0)
   adjMatrix[start][end] = 1;
 650:	000017b7          	lui	a5,0x1
 654:	af478693          	addi	a3,a5,-1292 # af4 <adjMatrix>
 658:	fec42703          	lw	a4,-20(s0)
 65c:	00070793          	addi	a5,a4,0
 660:	00279793          	slli	a5,a5,0x2
 664:	00e787b3          	add	a5,a5,a4
 668:	fe842703          	lw	a4,-24(s0)
 66c:	00e787b3          	add	a5,a5,a4
 670:	00279793          	slli	a5,a5,0x2
 674:	00f687b3          	add	a5,a3,a5
 678:	00100713          	addi	a4,zero,1
 67c:	00e7a023          	sw	a4,0(a5)
   adjMatrix[end][start] = 1;
 680:	000017b7          	lui	a5,0x1
 684:	af478693          	addi	a3,a5,-1292 # af4 <adjMatrix>
 688:	fe842703          	lw	a4,-24(s0)
 68c:	00070793          	addi	a5,a4,0
 690:	00279793          	slli	a5,a5,0x2
 694:	00e787b3          	add	a5,a5,a4
 698:	fec42703          	lw	a4,-20(s0)
 69c:	00e787b3          	add	a5,a5,a4
 6a0:	00279793          	slli	a5,a5,0x2
 6a4:	00f687b3          	add	a5,a3,a5
 6a8:	00100713          	addi	a4,zero,1
 6ac:	00e7a023          	sw	a4,0(a5)
}
 6b0:	00000013          	addi	zero,zero,0
 6b4:	01c12403          	lw	s0,28(sp)
 6b8:	02010113          	addi	sp,sp,32
 6bc:	00008067          	jalr	zero,0(ra)

000006c0 <getAdjUnvisitedVertex>:

//get the adjacent unvisited vertex
int getAdjUnvisitedVertex(int vertexIndex) {
 6c0:	fd010113          	addi	sp,sp,-48
 6c4:	02812623          	sw	s0,44(sp)
 6c8:	03010413          	addi	s0,sp,48
 6cc:	fca42e23          	sw	a0,-36(s0)
   int i;
    
   for(i = 0; i<vertexCount; i++) {
 6d0:	fe042623          	sw	zero,-20(s0)
 6d4:	0740006f          	jal	zero,748 <getAdjUnvisitedVertex+0x88>
      if(adjMatrix[vertexIndex][i] == 1 && lstVertices[i]->visited == false)
 6d8:	000017b7          	lui	a5,0x1
 6dc:	af478693          	addi	a3,a5,-1292 # af4 <adjMatrix>
 6e0:	fdc42703          	lw	a4,-36(s0)
 6e4:	00070793          	addi	a5,a4,0
 6e8:	00279793          	slli	a5,a5,0x2
 6ec:	00e787b3          	add	a5,a5,a4
 6f0:	fec42703          	lw	a4,-20(s0)
 6f4:	00e787b3          	add	a5,a5,a4
 6f8:	00279793          	slli	a5,a5,0x2
 6fc:	00f687b3          	add	a5,a3,a5
 700:	0007a703          	lw	a4,0(a5)
 704:	00100793          	addi	a5,zero,1
 708:	02f71a63          	bne	a4,a5,73c <getAdjUnvisitedVertex+0x7c>
 70c:	000017b7          	lui	a5,0x1
 710:	ae078713          	addi	a4,a5,-1312 # ae0 <lstVertices>
 714:	fec42783          	lw	a5,-20(s0)
 718:	00279793          	slli	a5,a5,0x2
 71c:	00f707b3          	add	a5,a4,a5
 720:	0007a783          	lw	a5,0(a5)
 724:	0017c783          	lbu	a5,1(a5)
 728:	0017c793          	xori	a5,a5,1
 72c:	0ff7f793          	andi	a5,a5,255
 730:	00078663          	beq	a5,zero,73c <getAdjUnvisitedVertex+0x7c>
         return i;
 734:	fec42783          	lw	a5,-20(s0)
 738:	0240006f          	jal	zero,75c <getAdjUnvisitedVertex+0x9c>
   for(i = 0; i<vertexCount; i++) {
 73c:	fec42783          	lw	a5,-20(s0)
 740:	00178793          	addi	a5,a5,1
 744:	fef42623          	sw	a5,-20(s0)
 748:	000017b7          	lui	a5,0x1
 74c:	ac87a783          	lw	a5,-1336(a5) # ac8 <vertexCount>
 750:	fec42703          	lw	a4,-20(s0)
 754:	f8f742e3          	blt	a4,a5,6d8 <getAdjUnvisitedVertex+0x18>
   }
    
   return -1;
 758:	fff00793          	addi	a5,zero,-1
}
 75c:	00078513          	addi	a0,a5,0
 760:	02c12403          	lw	s0,44(sp)
 764:	03010113          	addi	sp,sp,48
 768:	00008067          	jalr	zero,0(ra)

0000076c <breadthFirstSearch>:

void breadthFirstSearch() {
 76c:	fe010113          	addi	sp,sp,-32
 770:	00112e23          	sw	ra,28(sp)
 774:	00812c23          	sw	s0,24(sp)
 778:	02010413          	addi	s0,sp,32
   int i;

   //mark first node as visited
   lstVertices[0]->visited = true;
 77c:	000017b7          	lui	a5,0x1
 780:	ae078793          	addi	a5,a5,-1312 # ae0 <lstVertices>
 784:	0007a783          	lw	a5,0(a5)
 788:	00100713          	addi	a4,zero,1
 78c:	00e780a3          	sb	a4,1(a5)

   //insert vertex index in queue
   insert(0);
 790:	00000513          	addi	a0,zero,0
 794:	00000097          	auipc	ra,0x0
 798:	d40080e7          	jalr	ra,-704(ra) # 4d4 <insert>
   int unvisitedVertex;

   while(!isQueueEmpty()) {
 79c:	05c0006f          	jal	zero,7f8 <breadthFirstSearch+0x8c>
      //get the unvisited vertex of vertex which is at front of the queue
      int tempVertex = removeData();   
 7a0:	00000097          	auipc	ra,0x0
 7a4:	d9c080e7          	jalr	ra,-612(ra) # 53c <removeData>
 7a8:	fea42423          	sw	a0,-24(s0)

      //no adjacent vertex found
      while((unvisitedVertex = getAdjUnvisitedVertex(tempVertex)) != -1) {    
 7ac:	0300006f          	jal	zero,7dc <breadthFirstSearch+0x70>
         lstVertices[unvisitedVertex]->visited = true;
 7b0:	000017b7          	lui	a5,0x1
 7b4:	ae078713          	addi	a4,a5,-1312 # ae0 <lstVertices>
 7b8:	fe442783          	lw	a5,-28(s0)
 7bc:	00279793          	slli	a5,a5,0x2
 7c0:	00f707b3          	add	a5,a4,a5
 7c4:	0007a783          	lw	a5,0(a5)
 7c8:	00100713          	addi	a4,zero,1
 7cc:	00e780a3          	sb	a4,1(a5)
         insert(unvisitedVertex);               
 7d0:	fe442503          	lw	a0,-28(s0)
 7d4:	00000097          	auipc	ra,0x0
 7d8:	d00080e7          	jalr	ra,-768(ra) # 4d4 <insert>
      while((unvisitedVertex = getAdjUnvisitedVertex(tempVertex)) != -1) {    
 7dc:	fe842503          	lw	a0,-24(s0)
 7e0:	00000097          	auipc	ra,0x0
 7e4:	ee0080e7          	jalr	ra,-288(ra) # 6c0 <getAdjUnvisitedVertex>
 7e8:	fea42223          	sw	a0,-28(s0)
 7ec:	fe442703          	lw	a4,-28(s0)
 7f0:	fff00793          	addi	a5,zero,-1
 7f4:	faf71ee3          	bne	a4,a5,7b0 <breadthFirstSearch+0x44>
   while(!isQueueEmpty()) {
 7f8:	00000097          	auipc	ra,0x0
 7fc:	d9c080e7          	jalr	ra,-612(ra) # 594 <isQueueEmpty>
 800:	00050793          	addi	a5,a0,0
 804:	0017c793          	xori	a5,a5,1
 808:	0ff7f793          	andi	a5,a5,255
 80c:	f8079ae3          	bne	a5,zero,7a0 <breadthFirstSearch+0x34>
      }
        
   }   

   //queue is empty, search is complete, reset the visited flag        
   for(i = 0;i<vertexCount;i++) {
 810:	fe042623          	sw	zero,-20(s0)
 814:	02c0006f          	jal	zero,840 <breadthFirstSearch+0xd4>
      lstVertices[i]->visited = false;
 818:	000017b7          	lui	a5,0x1
 81c:	ae078713          	addi	a4,a5,-1312 # ae0 <lstVertices>
 820:	fec42783          	lw	a5,-20(s0)
 824:	00279793          	slli	a5,a5,0x2
 828:	00f707b3          	add	a5,a4,a5
 82c:	0007a783          	lw	a5,0(a5)
 830:	000780a3          	sb	zero,1(a5)
   for(i = 0;i<vertexCount;i++) {
 834:	fec42783          	lw	a5,-20(s0)
 838:	00178793          	addi	a5,a5,1
 83c:	fef42623          	sw	a5,-20(s0)
 840:	000017b7          	lui	a5,0x1
 844:	ac87a783          	lw	a5,-1336(a5) # ac8 <vertexCount>
 848:	fec42703          	lw	a4,-20(s0)
 84c:	fcf746e3          	blt	a4,a5,818 <breadthFirstSearch+0xac>
   }    
}
 850:	00000013          	addi	zero,zero,0
 854:	00000013          	addi	zero,zero,0
 858:	01c12083          	lw	ra,28(sp)
 85c:	01812403          	lw	s0,24(sp)
 860:	02010113          	addi	sp,sp,32
 864:	00008067          	jalr	zero,0(ra)

00000868 <main>:

int main() {
 868:	fe010113          	addi	sp,sp,-32
 86c:	00112e23          	sw	ra,28(sp)
 870:	00812c23          	sw	s0,24(sp)
 874:	02010413          	addi	s0,sp,32
   int i, j;

   for(i = 0; i<MAX; i++) {
 878:	fe042623          	sw	zero,-20(s0)
 87c:	05c0006f          	jal	zero,8d8 <main+0x70>
      for(j = 0; j<MAX; j++) // matrix to 0
 880:	fe042423          	sw	zero,-24(s0)
 884:	03c0006f          	jal	zero,8c0 <main+0x58>
         adjMatrix[i][j] = 0;
 888:	000017b7          	lui	a5,0x1
 88c:	af478693          	addi	a3,a5,-1292 # af4 <adjMatrix>
 890:	fec42703          	lw	a4,-20(s0)
 894:	00070793          	addi	a5,a4,0
 898:	00279793          	slli	a5,a5,0x2
 89c:	00e787b3          	add	a5,a5,a4
 8a0:	fe842703          	lw	a4,-24(s0)
 8a4:	00e787b3          	add	a5,a5,a4
 8a8:	00279793          	slli	a5,a5,0x2
 8ac:	00f687b3          	add	a5,a3,a5
 8b0:	0007a023          	sw	zero,0(a5)
      for(j = 0; j<MAX; j++) // matrix to 0
 8b4:	fe842783          	lw	a5,-24(s0)
 8b8:	00178793          	addi	a5,a5,1
 8bc:	fef42423          	sw	a5,-24(s0)
 8c0:	fe842703          	lw	a4,-24(s0)
 8c4:	00400793          	addi	a5,zero,4
 8c8:	fce7d0e3          	bge	a5,a4,888 <main+0x20>
   for(i = 0; i<MAX; i++) {
 8cc:	fec42783          	lw	a5,-20(s0)
 8d0:	00178793          	addi	a5,a5,1
 8d4:	fef42623          	sw	a5,-20(s0)
 8d8:	fec42703          	lw	a4,-20(s0)
 8dc:	00400793          	addi	a5,zero,4
 8e0:	fae7d0e3          	bge	a5,a4,880 <main+0x18>
   }

   addVertex('S');   // 0
 8e4:	05300513          	addi	a0,zero,83
 8e8:	00000097          	auipc	ra,0x0
 8ec:	cd8080e7          	jalr	ra,-808(ra) # 5c0 <addVertex>
   addVertex('A');   // 1
 8f0:	04100513          	addi	a0,zero,65
 8f4:	00000097          	auipc	ra,0x0
 8f8:	ccc080e7          	jalr	ra,-820(ra) # 5c0 <addVertex>
   addVertex('B');   // 2
 8fc:	04200513          	addi	a0,zero,66
 900:	00000097          	auipc	ra,0x0
 904:	cc0080e7          	jalr	ra,-832(ra) # 5c0 <addVertex>
   addVertex('C');   // 3
 908:	04300513          	addi	a0,zero,67
 90c:	00000097          	auipc	ra,0x0
 910:	cb4080e7          	jalr	ra,-844(ra) # 5c0 <addVertex>
   addVertex('D');   // 4
 914:	04400513          	addi	a0,zero,68
 918:	00000097          	auipc	ra,0x0
 91c:	ca8080e7          	jalr	ra,-856(ra) # 5c0 <addVertex>
 
   addEdge(0, 1);    // S - A
 920:	00100593          	addi	a1,zero,1
 924:	00000513          	addi	a0,zero,0
 928:	00000097          	auipc	ra,0x0
 92c:	d14080e7          	jalr	ra,-748(ra) # 63c <addEdge>
   addEdge(0, 2);    // S - B
 930:	00200593          	addi	a1,zero,2
 934:	00000513          	addi	a0,zero,0
 938:	00000097          	auipc	ra,0x0
 93c:	d04080e7          	jalr	ra,-764(ra) # 63c <addEdge>
   addEdge(0, 3);    // S - C
 940:	00300593          	addi	a1,zero,3
 944:	00000513          	addi	a0,zero,0
 948:	00000097          	auipc	ra,0x0
 94c:	cf4080e7          	jalr	ra,-780(ra) # 63c <addEdge>
   addEdge(1, 4);    // A - D
 950:	00400593          	addi	a1,zero,4
 954:	00100513          	addi	a0,zero,1
 958:	00000097          	auipc	ra,0x0
 95c:	ce4080e7          	jalr	ra,-796(ra) # 63c <addEdge>
   addEdge(2, 4);    // B - D
 960:	00400593          	addi	a1,zero,4
 964:	00200513          	addi	a0,zero,2
 968:	00000097          	auipc	ra,0x0
 96c:	cd4080e7          	jalr	ra,-812(ra) # 63c <addEdge>
   addEdge(3, 4);    // C - D
 970:	00400593          	addi	a1,zero,4
 974:	00300513          	addi	a0,zero,3
 978:	00000097          	auipc	ra,0x0
 97c:	cc4080e7          	jalr	ra,-828(ra) # 63c <addEdge>
    
   
   breadthFirstSearch();
 980:	00000097          	auipc	ra,0x0
 984:	dec080e7          	jalr	ra,-532(ra) # 76c <breadthFirstSearch>

   return 0;
 988:	00000793          	addi	a5,zero,0
}
 98c:	00078513          	addi	a0,a5,0
 990:	01c12083          	lw	ra,28(sp)
 994:	01812403          	lw	s0,24(sp)
 998:	02010113          	addi	sp,sp,32
 99c:	00008067          	jalr	zero,0(ra)

000009a0 <memset>:
 9a0:	433d                	c.li	t1,15
 9a2:	872a                	c.mv	a4,a0
 9a4:	02c37363          	bgeu	t1,a2,9ca <memset+0x2a>
 9a8:	00f77793          	andi	a5,a4,15
 9ac:	efbd                	c.bnez	a5,a2a <memset+0x8a>
 9ae:	e5ad                	c.bnez	a1,a18 <memset+0x78>
 9b0:	ff067693          	andi	a3,a2,-16
 9b4:	8a3d                	c.andi	a2,15
 9b6:	96ba                	c.add	a3,a4
 9b8:	c30c                	c.sw	a1,0(a4)
 9ba:	c34c                	c.sw	a1,4(a4)
 9bc:	c70c                	c.sw	a1,8(a4)
 9be:	c74c                	c.sw	a1,12(a4)
 9c0:	0741                	c.addi	a4,16
 9c2:	fed76be3          	bltu	a4,a3,9b8 <memset+0x18>
 9c6:	e211                	c.bnez	a2,9ca <memset+0x2a>
 9c8:	8082                	c.jr	ra
 9ca:	40c306b3          	sub	a3,t1,a2
 9ce:	068a                	c.slli	a3,0x2
 9d0:	00000297          	auipc	t0,0x0
 9d4:	9696                	c.add	a3,t0
 9d6:	00a68067          	jalr	zero,10(a3)
 9da:	00b70723          	sb	a1,14(a4)
 9de:	00b706a3          	sb	a1,13(a4)
 9e2:	00b70623          	sb	a1,12(a4)
 9e6:	00b705a3          	sb	a1,11(a4)
 9ea:	00b70523          	sb	a1,10(a4)
 9ee:	00b704a3          	sb	a1,9(a4)
 9f2:	00b70423          	sb	a1,8(a4)
 9f6:	00b703a3          	sb	a1,7(a4)
 9fa:	00b70323          	sb	a1,6(a4)
 9fe:	00b702a3          	sb	a1,5(a4)
 a02:	00b70223          	sb	a1,4(a4)
 a06:	00b701a3          	sb	a1,3(a4)
 a0a:	00b70123          	sb	a1,2(a4)
 a0e:	00b700a3          	sb	a1,1(a4)
 a12:	00b70023          	sb	a1,0(a4)
 a16:	8082                	c.jr	ra
 a18:	0ff5f593          	andi	a1,a1,255
 a1c:	00859693          	slli	a3,a1,0x8
 a20:	8dd5                	c.or	a1,a3
 a22:	01059693          	slli	a3,a1,0x10
 a26:	8dd5                	c.or	a1,a3
 a28:	b761                	c.j	9b0 <memset+0x10>
 a2a:	00279693          	slli	a3,a5,0x2
 a2e:	00000297          	auipc	t0,0x0
 a32:	9696                	c.add	a3,t0
 a34:	8286                	c.mv	t0,ra
 a36:	fa8680e7          	jalr	ra,-88(a3)
 a3a:	8096                	c.mv	ra,t0
 a3c:	17c1                	c.addi	a5,-16
 a3e:	8f1d                	c.sub	a4,a5
 a40:	963e                	c.add	a2,a5
 a42:	f8c374e3          	bgeu	t1,a2,9ca <memset+0x2a>
 a46:	b7a5                	c.j	9ae <memset+0xe>
	...
