
program.debug_alexnet.elf:     file format elf32-littleriscv


Disassembly of section .text:

00000000 <crt>:

.global crt
.section .text.prologue, "ax"
.align 4
crt:
	nop
       0:	00000013          	addi	x0,x0,0
	la ra, exit
       4:	00000097          	auipc	x1,0x0
       8:	09c08093          	addi	x1,x1,156 # a0 <exit>
	la sp, _sp
       c:	00010117          	auipc	x2,0x10
      10:	ff410113          	addi	x2,x2,-12 # 10000 <_sp>
	mv s0, sp
      14:	00010413          	addi	x8,x2,0
	la gp, __global_pointer$
      18:	00002197          	auipc	x3,0x2
      1c:	fa818193          	addi	x3,x3,-88 # 1fc0 <__global_pointer$>
	li tp, 0
      20:	00000213          	addi	x4,x0,0
	li t0, 0
      24:	00000293          	addi	x5,x0,0
	li t1, 0
      28:	00000313          	addi	x6,x0,0
	li t2, 0
      2c:	00000393          	addi	x7,x0,0
	li s1, 0
      30:	00000493          	addi	x9,x0,0
	li a0, 0
      34:	00000513          	addi	x10,x0,0
	li a1, 0
      38:	00000593          	addi	x11,x0,0
	li a2, 0
      3c:	00000613          	addi	x12,x0,0
	li a3, 0
      40:	00000693          	addi	x13,x0,0
	li a4, 0
      44:	00000713          	addi	x14,x0,0
	li a5, 0
      48:	00000793          	addi	x15,x0,0
	li a6, 0
      4c:	00000813          	addi	x16,x0,0
	li a7, 0
      50:	00000893          	addi	x17,x0,0
	li s2, 0
      54:	00000913          	addi	x18,x0,0
	li s3, 0
      58:	00000993          	addi	x19,x0,0
	li s4, 0
      5c:	00000a13          	addi	x20,x0,0
	li s5, 0
      60:	00000a93          	addi	x21,x0,0
	li s6, 0
      64:	00000b13          	addi	x22,x0,0
	li s7, 0
      68:	00000b93          	addi	x23,x0,0
	li s8, 0
      6c:	00000c13          	addi	x24,x0,0
	li s9, 0
      70:	00000c93          	addi	x25,x0,0
	li s10, 0
      74:	00000d13          	addi	x26,x0,0
	li s11, 0
      78:	00000d93          	addi	x27,x0,0
	li t3, 0
      7c:	00000e13          	addi	x28,x0,0
	li t4, 0
      80:	00000e93          	addi	x29,x0,0
	li t5, 0
      84:	00000f13          	addi	x30,x0,0
	li t6, 0
      88:	00000f93          	addi	x31,x0,0
	j main
      8c:	3f80106f          	jal	x0,1484 <main>
	...

000000a0 <exit>:

.global exit
.section .text
.align 4
exit:
	la sp, _sp
      a0:	00010117          	auipc	x2,0x10
      a4:	f6010113          	addi	x2,x2,-160 # 10000 <_sp>
	sw a0, -8(sp)
      a8:	fea12c23          	sw	x10,-8(x2)
	nop
      ac:	00000013          	addi	x0,x0,0
	wfi
      b0:	10500073          	wfi

000000b4 <tj_free>:
} Header;
static Header base; //empty list to get started
static Header *freep = NULL; //start of the free list


void tj_free(void *mem) {
      b4:	fd010113          	addi	x2,x2,-48
      b8:	02112623          	sw	x1,44(x2)
      bc:	02812423          	sw	x8,40(x2)
      c0:	03010413          	addi	x8,x2,48
      c4:	fca42e23          	sw	x10,-36(x8)
	//sanity check, we don't want to free memory that's not
	//in the heap
	if (mem < (void *)heap || mem > (void *)(heap + sizeof(heap)))
      c8:	fdc42703          	lw	x14,-36(x8)
      cc:	000027b7          	lui	x15,0x2
      d0:	81878793          	addi	x15,x15,-2024 # 1818 <heap>
      d4:	00f76a63          	bltu	x14,x15,e8 <tj_free+0x34>
      d8:	000067b7          	lui	x15,0x6
      dc:	81878793          	addi	x15,x15,-2024 # 5818 <base>
      e0:	fdc42703          	lw	x14,-36(x8)
      e4:	00e7f863          	bgeu	x15,x14,f4 <tj_free+0x40>
		exit(1);
      e8:	00100513          	addi	x10,x0,1
      ec:	00000097          	auipc	x1,0x0
      f0:	fb4080e7          	jalr	x1,-76(x1) # a0 <exit>

	Header *bp, *p;
	bp = (Header *)mem - 1; //point to block header
      f4:	fdc42783          	lw	x15,-36(x8)
      f8:	ff878793          	addi	x15,x15,-8
      fc:	fef42423          	sw	x15,-24(x8)
	//scan the free list to see where the current block should sit in between
	for (p = freep; !(bp > p && bp < p->next); p = p->next) 
     100:	000067b7          	lui	x15,0x6
     104:	8207a783          	lw	x15,-2016(x15) # 5820 <freep>
     108:	fef42623          	sw	x15,-20(x8)
     10c:	03c0006f          	jal	x0,148 <tj_free+0x94>
		// self wrapped free list with only one entry
		//                  or you are just at the very beginning/end
		if (p >= p->next && (bp > p || bp < p->next))
     110:	fec42783          	lw	x15,-20(x8)
     114:	0007a783          	lw	x15,0(x15)
     118:	fec42703          	lw	x14,-20(x8)
     11c:	02f76063          	bltu	x14,x15,13c <tj_free+0x88>
     120:	fe842703          	lw	x14,-24(x8)
     124:	fec42783          	lw	x15,-20(x8)
     128:	02e7ee63          	bltu	x15,x14,164 <tj_free+0xb0>
     12c:	fec42783          	lw	x15,-20(x8)
     130:	0007a783          	lw	x15,0(x15)
     134:	fe842703          	lw	x14,-24(x8)
     138:	02f76663          	bltu	x14,x15,164 <tj_free+0xb0>
	for (p = freep; !(bp > p && bp < p->next); p = p->next) 
     13c:	fec42783          	lw	x15,-20(x8)
     140:	0007a783          	lw	x15,0(x15)
     144:	fef42623          	sw	x15,-20(x8)
     148:	fe842703          	lw	x14,-24(x8)
     14c:	fec42783          	lw	x15,-20(x8)
     150:	fce7f0e3          	bgeu	x15,x14,110 <tj_free+0x5c>
     154:	fec42783          	lw	x15,-20(x8)
     158:	0007a783          	lw	x15,0(x15)
     15c:	fe842703          	lw	x14,-24(x8)
     160:	faf778e3          	bgeu	x14,x15,110 <tj_free+0x5c>
			break; //freed block at start of end of the arena
		//we can merge the 2 free blocks if they are adjacent to each other
		//or we just can append a new entry into the free list
	if (bp + bp->size == p->next) { //join to upper nbr
     164:	fe842783          	lw	x15,-24(x8)
     168:	0047a783          	lw	x15,4(x15)
     16c:	00379793          	slli	x15,x15,0x3
     170:	fe842703          	lw	x14,-24(x8)
     174:	00f70733          	add	x14,x14,x15
     178:	fec42783          	lw	x15,-20(x8)
     17c:	0007a783          	lw	x15,0(x15)
     180:	02f71e63          	bne	x14,x15,1bc <tj_free+0x108>
		//merge if exactly adjacent
		bp->size += p->next->size;
     184:	fe842783          	lw	x15,-24(x8)
     188:	0047a703          	lw	x14,4(x15)
     18c:	fec42783          	lw	x15,-20(x8)
     190:	0007a783          	lw	x15,0(x15)
     194:	0047a783          	lw	x15,4(x15)
     198:	00f70733          	add	x14,x14,x15
     19c:	fe842783          	lw	x15,-24(x8)
     1a0:	00e7a223          	sw	x14,4(x15)
		bp->next = p->next->next;
     1a4:	fec42783          	lw	x15,-20(x8)
     1a8:	0007a783          	lw	x15,0(x15)
     1ac:	0007a703          	lw	x14,0(x15)
     1b0:	fe842783          	lw	x15,-24(x8)
     1b4:	00e7a023          	sw	x14,0(x15)
     1b8:	0140006f          	jal	x0,1cc <tj_free+0x118>
	} else
		bp->next = p->next; //insert bp after p in the linked list
     1bc:	fec42783          	lw	x15,-20(x8)
     1c0:	0007a703          	lw	x14,0(x15)
     1c4:	fe842783          	lw	x15,-24(x8)
     1c8:	00e7a023          	sw	x14,0(x15)
		//if p is freep which is base, then this will make the newly
		//allocated block point to base

	if (p + p->size == bp) { //join to lower nbr
     1cc:	fec42783          	lw	x15,-20(x8)
     1d0:	0047a783          	lw	x15,4(x15)
     1d4:	00379793          	slli	x15,x15,0x3
     1d8:	fec42703          	lw	x14,-20(x8)
     1dc:	00f707b3          	add	x15,x14,x15
     1e0:	fe842703          	lw	x14,-24(x8)
     1e4:	02f71a63          	bne	x14,x15,218 <tj_free+0x164>
		//merge if exactly adjacent
		p->size += bp->size;
     1e8:	fec42783          	lw	x15,-20(x8)
     1ec:	0047a703          	lw	x14,4(x15)
     1f0:	fe842783          	lw	x15,-24(x8)
     1f4:	0047a783          	lw	x15,4(x15)
     1f8:	00f70733          	add	x14,x14,x15
     1fc:	fec42783          	lw	x15,-20(x8)
     200:	00e7a223          	sw	x14,4(x15)
		p->next = bp->next;
     204:	fe842783          	lw	x15,-24(x8)
     208:	0007a703          	lw	x14,0(x15)
     20c:	fec42783          	lw	x15,-20(x8)
     210:	00e7a023          	sw	x14,0(x15)
     214:	0100006f          	jal	x0,224 <tj_free+0x170>
	} else //or just append to linked list
		p->next = bp; //again, if the free list is just the base
     218:	fec42783          	lw	x15,-20(x8)
     21c:	fe842703          	lw	x14,-24(x8)
     220:	00e7a023          	sw	x14,0(x15)
		//then effectively we just created a new entry
		//and make it point to the base which has a size of 0
	freep = p;
     224:	000067b7          	lui	x15,0x6
     228:	fec42703          	lw	x14,-20(x8)
     22c:	82e7a023          	sw	x14,-2016(x15) # 5820 <freep>
}
     230:	00000013          	addi	x0,x0,0
     234:	02c12083          	lw	x1,44(x2)
     238:	02812403          	lw	x8,40(x2)
     23c:	03010113          	addi	x2,x2,48
     240:	00008067          	jalr	x0,0(x1)

00000244 <getmoremem>:

static Header* getmoremem(unsigned int total_size) {
     244:	fd010113          	addi	x2,x2,-48
     248:	02112623          	sw	x1,44(x2)
     24c:	02812423          	sw	x8,40(x2)
     250:	03010413          	addi	x8,x2,48
     254:	fca42e23          	sw	x10,-36(x8)
	if (avail_mem < total_size) return NULL; //gg, we ran out of mem :P
     258:	000017b7          	lui	x15,0x1
     25c:	7e47a783          	lw	x15,2020(x15) # 17e4 <avail_mem>
     260:	fdc42703          	lw	x14,-36(x8)
     264:	00e7f663          	bgeu	x15,x14,270 <getmoremem+0x2c>
     268:	00000793          	addi	x15,x0,0
     26c:	0700006f          	jal	x0,2dc <getmoremem+0x98>
	Header* up = (Header *)next_index;
     270:	000017b7          	lui	x15,0x1
     274:	7e07a783          	lw	x15,2016(x15) # 17e0 <next_index>
     278:	fef42623          	sw	x15,-20(x8)
	next_index += total_size; //allocate the block
     27c:	000017b7          	lui	x15,0x1
     280:	7e07a703          	lw	x14,2016(x15) # 17e0 <next_index>
     284:	fdc42783          	lw	x15,-36(x8)
     288:	00f70733          	add	x14,x14,x15
     28c:	000017b7          	lui	x15,0x1
     290:	7ee7a023          	sw	x14,2016(x15) # 17e0 <next_index>
	avail_mem -= total_size; //deduct from avail mem;
     294:	000017b7          	lui	x15,0x1
     298:	7e47a703          	lw	x14,2020(x15) # 17e4 <avail_mem>
     29c:	fdc42783          	lw	x15,-36(x8)
     2a0:	40f70733          	sub	x14,x14,x15
     2a4:	000017b7          	lui	x15,0x1
     2a8:	7ee7a223          	sw	x14,2020(x15) # 17e4 <avail_mem>
	up->size = total_size - sizeof(Header); //set the size right
     2ac:	fdc42783          	lw	x15,-36(x8)
     2b0:	ff878713          	addi	x14,x15,-8
     2b4:	fec42783          	lw	x15,-20(x8)
     2b8:	00e7a223          	sw	x14,4(x15)
	tj_free((void *)(++up)); //append the new block to the free list first
     2bc:	fec42783          	lw	x15,-20(x8)
     2c0:	00878793          	addi	x15,x15,8
     2c4:	fef42623          	sw	x15,-20(x8)
     2c8:	fec42503          	lw	x10,-20(x8)
     2cc:	00000097          	auipc	x1,0x0
     2d0:	de8080e7          	jalr	x1,-536(x1) # b4 <tj_free>
	return freep;
     2d4:	000067b7          	lui	x15,0x6
     2d8:	8207a783          	lw	x15,-2016(x15) # 5820 <freep>
}
     2dc:	00078513          	addi	x10,x15,0
     2e0:	02c12083          	lw	x1,44(x2)
     2e4:	02812403          	lw	x8,40(x2)
     2e8:	03010113          	addi	x2,x2,48
     2ec:	00008067          	jalr	x0,0(x1)

000002f0 <tj_malloc>:

void *tj_malloc(unsigned int size) {
     2f0:	fd010113          	addi	x2,x2,-48
     2f4:	02112623          	sw	x1,44(x2)
     2f8:	02812423          	sw	x8,40(x2)
     2fc:	03010413          	addi	x8,x2,48
     300:	fca42e23          	sw	x10,-36(x8)
	//sanity check, so that you don't blow the memory space
	if (size > sizeof(heap)) return NULL;
     304:	fdc42703          	lw	x14,-36(x8)
     308:	000047b7          	lui	x15,0x4
     30c:	00e7f663          	bgeu	x15,x14,318 <tj_malloc+0x28>
     310:	00000793          	addi	x15,x0,0
     314:	15c0006f          	jal	x0,470 <tj_malloc+0x180>
	//we want strict word alignment just to make things easier
	//and so that we don't have improper alignment issues
	if ((size & 3) != 0) {
     318:	fdc42783          	lw	x15,-36(x8)
     31c:	0037f793          	andi	x15,x15,3
     320:	00078a63          	beq	x15,x0,334 <tj_malloc+0x44>
		size = size + 4 - (size & 3);
     324:	fdc42783          	lw	x15,-36(x8)
     328:	ffc7f793          	andi	x15,x15,-4
     32c:	00478793          	addi	x15,x15,4 # 4004 <__global_pointer$+0x2044>
     330:	fcf42e23          	sw	x15,-36(x8)
	}

	//we want to build a linked list of the existing blocks and free blocks
	Header *p, *prevp; //iterators
	
	unsigned int total_size = size + sizeof(Header); //need to include the header size as well
     334:	fdc42783          	lw	x15,-36(x8)
     338:	00878793          	addi	x15,x15,8
     33c:	fef42223          	sw	x15,-28(x8)
	//check the linked list
	prevp = freep;
     340:	000067b7          	lui	x15,0x6
     344:	8207a783          	lw	x15,-2016(x15) # 5820 <freep>
     348:	fef42423          	sw	x15,-24(x8)
	//if there's no linked list yet
	if (prevp == NULL) {
     34c:	fe842783          	lw	x15,-24(x8)
     350:	02079e63          	bne	x15,x0,38c <tj_malloc+0x9c>
		prevp = &base;
     354:	000067b7          	lui	x15,0x6
     358:	81878793          	addi	x15,x15,-2024 # 5818 <base>
     35c:	fef42423          	sw	x15,-24(x8)
		freep = prevp;
     360:	000067b7          	lui	x15,0x6
     364:	fe842703          	lw	x14,-24(x8)
     368:	82e7a023          	sw	x14,-2016(x15) # 5820 <freep>
		base.next = freep;
     36c:	000067b7          	lui	x15,0x6
     370:	8207a703          	lw	x14,-2016(x15) # 5820 <freep>
     374:	000067b7          	lui	x15,0x6
     378:	81878793          	addi	x15,x15,-2024 # 5818 <base>
     37c:	00e7a023          	sw	x14,0(x15)
		base.size = 0;
     380:	000067b7          	lui	x15,0x6
     384:	81878793          	addi	x15,x15,-2024 # 5818 <base>
     388:	0007a223          	sw	x0,4(x15)
	}
	//traverse through the linked list, note there's no stopping condition
	for (p = prevp->next; ;prevp = p, p = p->next) {
     38c:	fe842783          	lw	x15,-24(x8)
     390:	0007a783          	lw	x15,0(x15)
     394:	fef42623          	sw	x15,-20(x8)
		if (p->size >= size) { //big enough
     398:	fec42783          	lw	x15,-20(x8)
     39c:	0047a783          	lw	x15,4(x15)
     3a0:	fdc42703          	lw	x14,-36(x8)
     3a4:	08e7e263          	bltu	x15,x14,428 <tj_malloc+0x138>
			if (p->size == size) // exact size
     3a8:	fec42783          	lw	x15,-20(x8)
     3ac:	0047a783          	lw	x15,4(x15)
     3b0:	fdc42703          	lw	x14,-36(x8)
     3b4:	00f71c63          	bne	x14,x15,3cc <tj_malloc+0xdc>
				prevp->next = p->next; // just return that block
     3b8:	fec42783          	lw	x15,-20(x8)
     3bc:	0007a703          	lw	x14,0(x15)
     3c0:	fe842783          	lw	x15,-24(x8)
     3c4:	00e7a023          	sw	x14,0(x15)
     3c8:	0400006f          	jal	x0,408 <tj_malloc+0x118>
			else {
				p->size -= total_size; //break up the block
     3cc:	fec42783          	lw	x15,-20(x8)
     3d0:	0047a703          	lw	x14,4(x15)
     3d4:	fe442783          	lw	x15,-28(x8)
     3d8:	40f70733          	sub	x14,x14,x15
     3dc:	fec42783          	lw	x15,-20(x8)
     3e0:	00e7a223          	sw	x14,4(x15)
				p += p->size;
     3e4:	fec42783          	lw	x15,-20(x8)
     3e8:	0047a783          	lw	x15,4(x15)
     3ec:	00379793          	slli	x15,x15,0x3
     3f0:	fec42703          	lw	x14,-20(x8)
     3f4:	00f707b3          	add	x15,x14,x15
     3f8:	fef42623          	sw	x15,-20(x8)
				p->size = size;
     3fc:	fec42783          	lw	x15,-20(x8)
     400:	fdc42703          	lw	x14,-36(x8)
     404:	00e7a223          	sw	x14,4(x15)
			}
			freep = prevp;
     408:	000067b7          	lui	x15,0x6
     40c:	fe842703          	lw	x14,-24(x8)
     410:	82e7a023          	sw	x14,-2016(x15) # 5820 <freep>
#ifdef DEBUG
			printf("returned pointer is %i\n", (int)p + 1);
#endif
			return (void *)(++p);
     414:	fec42783          	lw	x15,-20(x8)
     418:	00878793          	addi	x15,x15,8
     41c:	fef42623          	sw	x15,-20(x8)
     420:	fec42783          	lw	x15,-20(x8)
     424:	04c0006f          	jal	x0,470 <tj_malloc+0x180>
		}
		if (p == freep) //wrapped around free list
     428:	000067b7          	lui	x15,0x6
     42c:	8207a783          	lw	x15,-2016(x15) # 5820 <freep>
     430:	fec42703          	lw	x14,-20(x8)
     434:	02f71263          	bne	x14,x15,458 <tj_malloc+0x168>
			if ((p = getmoremem(total_size)) == NULL) //if the heap runs out
     438:	fe442503          	lw	x10,-28(x8)
     43c:	00000097          	auipc	x1,0x0
     440:	e08080e7          	jalr	x1,-504(x1) # 244 <getmoremem>
     444:	fea42623          	sw	x10,-20(x8)
     448:	fec42783          	lw	x15,-20(x8)
     44c:	00079663          	bne	x15,x0,458 <tj_malloc+0x168>
				return NULL; //well, you got nothing left, gg
     450:	00000793          	addi	x15,x0,0
     454:	01c0006f          	jal	x0,470 <tj_malloc+0x180>
	for (p = prevp->next; ;prevp = p, p = p->next) {
     458:	fec42783          	lw	x15,-20(x8)
     45c:	fef42423          	sw	x15,-24(x8)
     460:	fec42783          	lw	x15,-20(x8)
     464:	0007a783          	lw	x15,0(x15)
     468:	fef42623          	sw	x15,-20(x8)
		if (p->size >= size) { //big enough
     46c:	f2dff06f          	jal	x0,398 <tj_malloc+0xa8>
	}
}
     470:	00078513          	addi	x10,x15,0
     474:	02c12083          	lw	x1,44(x2)
     478:	02812403          	lw	x8,40(x2)
     47c:	03010113          	addi	x2,x2,48
     480:	00008067          	jalr	x0,0(x1)

00000484 <tj_calloc>:

void *tj_calloc(unsigned int size) {
     484:	fd010113          	addi	x2,x2,-48
     488:	02112623          	sw	x1,44(x2)
     48c:	02812423          	sw	x8,40(x2)
     490:	03010413          	addi	x8,x2,48
     494:	fca42e23          	sw	x10,-36(x8)
	void *mem = tj_malloc(size);
     498:	fdc42503          	lw	x10,-36(x8)
     49c:	00000097          	auipc	x1,0x0
     4a0:	e54080e7          	jalr	x1,-428(x1) # 2f0 <tj_malloc>
     4a4:	fea42623          	sw	x10,-20(x8)
	memset(mem, 0, size);
     4a8:	fdc42603          	lw	x12,-36(x8)
     4ac:	00000593          	addi	x11,x0,0
     4b0:	fec42503          	lw	x10,-20(x8)
     4b4:	00001097          	auipc	x1,0x1
     4b8:	228080e7          	jalr	x1,552(x1) # 16dc <memset>
	return mem;
     4bc:	fec42783          	lw	x15,-20(x8)
}
     4c0:	00078513          	addi	x10,x15,0
     4c4:	02c12083          	lw	x1,44(x2)
     4c8:	02812403          	lw	x8,40(x2)
     4cc:	03010113          	addi	x2,x2,48
     4d0:	00008067          	jalr	x0,0(x1)

000004d4 <random_gen>:

unsigned int lfsr = 0xACE1u;
unsigned period = 0;
char s[16+1];

int random_gen(){
     4d4:	fe010113          	addi	x2,x2,-32
     4d8:	00812e23          	sw	x8,28(x2)
     4dc:	02010413          	addi	x8,x2,32
    unsigned lsb = lfsr & 1;
     4e0:	000017b7          	lui	x15,0x1
     4e4:	7e87a783          	lw	x15,2024(x15) # 17e8 <lfsr>
     4e8:	0017f793          	andi	x15,x15,1
     4ec:	fef42623          	sw	x15,-20(x8)

    lfsr >>= 1;
     4f0:	000017b7          	lui	x15,0x1
     4f4:	7e87a783          	lw	x15,2024(x15) # 17e8 <lfsr>
     4f8:	0017d713          	srli	x14,x15,0x1
     4fc:	000017b7          	lui	x15,0x1
     500:	7ee7a423          	sw	x14,2024(x15) # 17e8 <lfsr>

    if (lsb == 1)
     504:	fec42703          	lw	x14,-20(x8)
     508:	00100793          	addi	x15,x0,1
     50c:	02f71063          	bne	x14,x15,52c <random_gen+0x58>
        lfsr ^= 0xB400u;
     510:	000017b7          	lui	x15,0x1
     514:	7e87a703          	lw	x14,2024(x15) # 17e8 <lfsr>
     518:	0000b7b7          	lui	x15,0xb
     51c:	40078793          	addi	x15,x15,1024 # b400 <_ebss+0x5bdc>
     520:	00f74733          	xor	x14,x14,x15
     524:	000017b7          	lui	x15,0x1
     528:	7ee7a423          	sw	x14,2024(x15) # 17e8 <lfsr>

    return lfsr;
     52c:	000017b7          	lui	x15,0x1
     530:	7e87a783          	lw	x15,2024(x15) # 17e8 <lfsr>
}
     534:	00078513          	addi	x10,x15,0
     538:	01c12403          	lw	x8,28(x2)
     53c:	02010113          	addi	x2,x2,32
     540:	00008067          	jalr	x0,0(x1)

00000544 <relu_af>:

int relu_af(int in_af){
     544:	fe010113          	addi	x2,x2,-32
     548:	00812e23          	sw	x8,28(x2)
     54c:	02010413          	addi	x8,x2,32
     550:	fea42623          	sw	x10,-20(x8)
	if(in_af < 0)
     554:	fec42783          	lw	x15,-20(x8)
     558:	0007d663          	bge	x15,x0,564 <relu_af+0x20>
		return 0;
     55c:	00000793          	addi	x15,x0,0
     560:	0080006f          	jal	x0,568 <relu_af+0x24>

	return in_af;
     564:	fec42783          	lw	x15,-20(x8)
}
     568:	00078513          	addi	x10,x15,0
     56c:	01c12403          	lw	x8,28(x2)
     570:	02010113          	addi	x2,x2,32
     574:	00008067          	jalr	x0,0(x1)

00000578 <fc_layer>:

void fc_layer(int weights[5][5], int biasses[5], int inputs[5], int outputs[5], int input_num, int output_num, int af_num){
     578:	fc010113          	addi	x2,x2,-64
     57c:	02112e23          	sw	x1,60(x2)
     580:	02812c23          	sw	x8,56(x2)
     584:	02912a23          	sw	x9,52(x2)
     588:	04010413          	addi	x8,x2,64
     58c:	fca42e23          	sw	x10,-36(x8)
     590:	fcb42c23          	sw	x11,-40(x8)
     594:	fcc42a23          	sw	x12,-44(x8)
     598:	fcd42823          	sw	x13,-48(x8)
     59c:	fce42623          	sw	x14,-52(x8)
     5a0:	fcf42423          	sw	x15,-56(x8)
     5a4:	fd042223          	sw	x16,-60(x8)
	int i;
	int j;
	for (i = 0; i < output_num; i++) {
     5a8:	fe042623          	sw	x0,-20(x8)
     5ac:	15c0006f          	jal	x0,708 <fc_layer+0x190>
		outputs[i] = biasses[i];
     5b0:	fec42783          	lw	x15,-20(x8)
     5b4:	00279793          	slli	x15,x15,0x2
     5b8:	fd842703          	lw	x14,-40(x8)
     5bc:	00f70733          	add	x14,x14,x15
     5c0:	fec42783          	lw	x15,-20(x8)
     5c4:	00279793          	slli	x15,x15,0x2
     5c8:	fd042683          	lw	x13,-48(x8)
     5cc:	00f687b3          	add	x15,x13,x15
     5d0:	00072703          	lw	x14,0(x14)
     5d4:	00e7a023          	sw	x14,0(x15)
		for (j = 0; j < input_num; j++) {
     5d8:	fe042423          	sw	x0,-24(x8)
     5dc:	0840006f          	jal	x0,660 <fc_layer+0xe8>
			outputs[i] += weights[i][j] * inputs[j];
     5e0:	fec42783          	lw	x15,-20(x8)
     5e4:	00279793          	slli	x15,x15,0x2
     5e8:	fd042703          	lw	x14,-48(x8)
     5ec:	00f707b3          	add	x15,x14,x15
     5f0:	0007a683          	lw	x13,0(x15)
     5f4:	fec42703          	lw	x14,-20(x8)
     5f8:	00070793          	addi	x15,x14,0
     5fc:	00279793          	slli	x15,x15,0x2
     600:	00e787b3          	add	x15,x15,x14
     604:	00279793          	slli	x15,x15,0x2
     608:	00078713          	addi	x14,x15,0
     60c:	fdc42783          	lw	x15,-36(x8)
     610:	00e78733          	add	x14,x15,x14
     614:	fe842783          	lw	x15,-24(x8)
     618:	00279793          	slli	x15,x15,0x2
     61c:	00f707b3          	add	x15,x14,x15
     620:	0007a703          	lw	x14,0(x15)
     624:	fe842783          	lw	x15,-24(x8)
     628:	00279793          	slli	x15,x15,0x2
     62c:	fd442603          	lw	x12,-44(x8)
     630:	00f607b3          	add	x15,x12,x15
     634:	0007a783          	lw	x15,0(x15)
     638:	02f70733          	mul	x14,x14,x15
     63c:	fec42783          	lw	x15,-20(x8)
     640:	00279793          	slli	x15,x15,0x2
     644:	fd042603          	lw	x12,-48(x8)
     648:	00f607b3          	add	x15,x12,x15
     64c:	00e68733          	add	x14,x13,x14
     650:	00e7a023          	sw	x14,0(x15)
		for (j = 0; j < input_num; j++) {
     654:	fe842783          	lw	x15,-24(x8)
     658:	00178793          	addi	x15,x15,1
     65c:	fef42423          	sw	x15,-24(x8)
     660:	fe842703          	lw	x14,-24(x8)
     664:	fcc42783          	lw	x15,-52(x8)
     668:	f6f74ce3          	blt	x14,x15,5e0 <fc_layer+0x68>
		}
        switch (af_num) {
     66c:	fc442783          	lw	x15,-60(x8)
     670:	00078a63          	beq	x15,x0,684 <fc_layer+0x10c>
     674:	fc442703          	lw	x14,-60(x8)
     678:	00100793          	addi	x15,x0,1
     67c:	04f70263          	beq	x14,x15,6c0 <fc_layer+0x148>
     680:	07c0006f          	jal	x0,6fc <fc_layer+0x184>
            case 0:
                outputs[i] = relu_af(outputs[i]);
     684:	fec42783          	lw	x15,-20(x8)
     688:	00279793          	slli	x15,x15,0x2
     68c:	fd042703          	lw	x14,-48(x8)
     690:	00f707b3          	add	x15,x14,x15
     694:	0007a683          	lw	x13,0(x15)
     698:	fec42783          	lw	x15,-20(x8)
     69c:	00279793          	slli	x15,x15,0x2
     6a0:	fd042703          	lw	x14,-48(x8)
     6a4:	00f704b3          	add	x9,x14,x15
     6a8:	00068513          	addi	x10,x13,0
     6ac:	00000097          	auipc	x1,0x0
     6b0:	e98080e7          	jalr	x1,-360(x1) # 544 <relu_af>
     6b4:	00050793          	addi	x15,x10,0
     6b8:	00f4a023          	sw	x15,0(x9)
                break;
     6bc:	0400006f          	jal	x0,6fc <fc_layer+0x184>
            case 1:
                outputs[i] = relu_af(outputs[i]);
     6c0:	fec42783          	lw	x15,-20(x8)
     6c4:	00279793          	slli	x15,x15,0x2
     6c8:	fd042703          	lw	x14,-48(x8)
     6cc:	00f707b3          	add	x15,x14,x15
     6d0:	0007a683          	lw	x13,0(x15)
     6d4:	fec42783          	lw	x15,-20(x8)
     6d8:	00279793          	slli	x15,x15,0x2
     6dc:	fd042703          	lw	x14,-48(x8)
     6e0:	00f704b3          	add	x9,x14,x15
     6e4:	00068513          	addi	x10,x13,0
     6e8:	00000097          	auipc	x1,0x0
     6ec:	e5c080e7          	jalr	x1,-420(x1) # 544 <relu_af>
     6f0:	00050793          	addi	x15,x10,0
     6f4:	00f4a023          	sw	x15,0(x9)
                break;
     6f8:	00000013          	addi	x0,x0,0
	for (i = 0; i < output_num; i++) {
     6fc:	fec42783          	lw	x15,-20(x8)
     700:	00178793          	addi	x15,x15,1
     704:	fef42623          	sw	x15,-20(x8)
     708:	fec42703          	lw	x14,-20(x8)
     70c:	fc842783          	lw	x15,-56(x8)
     710:	eaf740e3          	blt	x14,x15,5b0 <fc_layer+0x38>
        }
	}
}
     714:	00000013          	addi	x0,x0,0
     718:	00000013          	addi	x0,x0,0
     71c:	03c12083          	lw	x1,60(x2)
     720:	03812403          	lw	x8,56(x2)
     724:	03412483          	lw	x9,52(x2)
     728:	04010113          	addi	x2,x2,64
     72c:	00008067          	jalr	x0,0(x1)

00000730 <fc_input_generator>:

void fc_input_generator(int inputs[5], int input_num){
     730:	fd010113          	addi	x2,x2,-48
     734:	02112623          	sw	x1,44(x2)
     738:	02812423          	sw	x8,40(x2)
     73c:	03010413          	addi	x8,x2,48
     740:	fca42e23          	sw	x10,-36(x8)
     744:	fcb42c23          	sw	x11,-40(x8)
	int i;
    for (i = 0; i < input_num; i++) {
     748:	fe042623          	sw	x0,-20(x8)
     74c:	0380006f          	jal	x0,784 <fc_input_generator+0x54>
        inputs[i] = (random_gen()&15) - 5;
     750:	00000097          	auipc	x1,0x0
     754:	d84080e7          	jalr	x1,-636(x1) # 4d4 <random_gen>
     758:	00050793          	addi	x15,x10,0
     75c:	00f7f713          	andi	x14,x15,15
     760:	fec42783          	lw	x15,-20(x8)
     764:	00279793          	slli	x15,x15,0x2
     768:	fdc42683          	lw	x13,-36(x8)
     76c:	00f687b3          	add	x15,x13,x15
     770:	ffb70713          	addi	x14,x14,-5
     774:	00e7a023          	sw	x14,0(x15)
    for (i = 0; i < input_num; i++) {
     778:	fec42783          	lw	x15,-20(x8)
     77c:	00178793          	addi	x15,x15,1
     780:	fef42623          	sw	x15,-20(x8)
     784:	fec42703          	lw	x14,-20(x8)
     788:	fd842783          	lw	x15,-40(x8)
     78c:	fcf742e3          	blt	x14,x15,750 <fc_input_generator+0x20>
    }
}
     790:	00000013          	addi	x0,x0,0
     794:	00000013          	addi	x0,x0,0
     798:	02c12083          	lw	x1,44(x2)
     79c:	02812403          	lw	x8,40(x2)
     7a0:	03010113          	addi	x2,x2,48
     7a4:	00008067          	jalr	x0,0(x1)

000007a8 <fc_weight_generator>:

void fc_weight_generator(int weights[5][5], int biasses[5], int input_num, int output_num){
     7a8:	fd010113          	addi	x2,x2,-48
     7ac:	02112623          	sw	x1,44(x2)
     7b0:	02812423          	sw	x8,40(x2)
     7b4:	03010413          	addi	x8,x2,48
     7b8:	fca42e23          	sw	x10,-36(x8)
     7bc:	fcb42c23          	sw	x11,-40(x8)
     7c0:	fcc42a23          	sw	x12,-44(x8)
     7c4:	fcd42823          	sw	x13,-48(x8)
	int i;
	int j;
	for (i = 0; i < output_num; i++) {
     7c8:	fe042623          	sw	x0,-20(x8)
     7cc:	09c0006f          	jal	x0,868 <fc_weight_generator+0xc0>
        biasses[i] = (random_gen()&15) - 5;
     7d0:	00000097          	auipc	x1,0x0
     7d4:	d04080e7          	jalr	x1,-764(x1) # 4d4 <random_gen>
     7d8:	00050793          	addi	x15,x10,0
     7dc:	00f7f713          	andi	x14,x15,15
     7e0:	fec42783          	lw	x15,-20(x8)
     7e4:	00279793          	slli	x15,x15,0x2
     7e8:	fd842683          	lw	x13,-40(x8)
     7ec:	00f687b3          	add	x15,x13,x15
     7f0:	ffb70713          	addi	x14,x14,-5
     7f4:	00e7a023          	sw	x14,0(x15)
        for (j = 0; j < input_num; j++) {
     7f8:	fe042423          	sw	x0,-24(x8)
     7fc:	0540006f          	jal	x0,850 <fc_weight_generator+0xa8>
            weights[i][j] = (random_gen()&15) - 5;
     800:	00000097          	auipc	x1,0x0
     804:	cd4080e7          	jalr	x1,-812(x1) # 4d4 <random_gen>
     808:	00050793          	addi	x15,x10,0
     80c:	00f7f613          	andi	x12,x15,15
     810:	fec42703          	lw	x14,-20(x8)
     814:	00070793          	addi	x15,x14,0
     818:	00279793          	slli	x15,x15,0x2
     81c:	00e787b3          	add	x15,x15,x14
     820:	00279793          	slli	x15,x15,0x2
     824:	00078713          	addi	x14,x15,0
     828:	fdc42783          	lw	x15,-36(x8)
     82c:	00e786b3          	add	x13,x15,x14
     830:	ffb60713          	addi	x14,x12,-5
     834:	fe842783          	lw	x15,-24(x8)
     838:	00279793          	slli	x15,x15,0x2
     83c:	00f687b3          	add	x15,x13,x15
     840:	00e7a023          	sw	x14,0(x15)
        for (j = 0; j < input_num; j++) {
     844:	fe842783          	lw	x15,-24(x8)
     848:	00178793          	addi	x15,x15,1
     84c:	fef42423          	sw	x15,-24(x8)
     850:	fe842703          	lw	x14,-24(x8)
     854:	fd442783          	lw	x15,-44(x8)
     858:	faf744e3          	blt	x14,x15,800 <fc_weight_generator+0x58>
	for (i = 0; i < output_num; i++) {
     85c:	fec42783          	lw	x15,-20(x8)
     860:	00178793          	addi	x15,x15,1
     864:	fef42623          	sw	x15,-20(x8)
     868:	fec42703          	lw	x14,-20(x8)
     86c:	fd042783          	lw	x15,-48(x8)
     870:	f6f740e3          	blt	x14,x15,7d0 <fc_weight_generator+0x28>
        }
    }
}
     874:	00000013          	addi	x0,x0,0
     878:	00000013          	addi	x0,x0,0
     87c:	02c12083          	lw	x1,44(x2)
     880:	02812403          	lw	x8,40(x2)
     884:	03010113          	addi	x2,x2,48
     888:	00008067          	jalr	x0,0(x1)

0000088c <fc_soft_max>:

int fc_soft_max(int features[5], int feature_num){
     88c:	fd010113          	addi	x2,x2,-48
     890:	02812623          	sw	x8,44(x2)
     894:	03010413          	addi	x8,x2,48
     898:	fca42e23          	sw	x10,-36(x8)
     89c:	fcb42c23          	sw	x11,-40(x8)
	int i;
	int max = 0;
     8a0:	fe042423          	sw	x0,-24(x8)
    for (i = 1; i < feature_num; i++) {
     8a4:	00100793          	addi	x15,x0,1
     8a8:	fef42623          	sw	x15,-20(x8)
     8ac:	0440006f          	jal	x0,8f0 <fc_soft_max+0x64>
        if(features[max] < features[i])
     8b0:	fe842783          	lw	x15,-24(x8)
     8b4:	00279793          	slli	x15,x15,0x2
     8b8:	fdc42703          	lw	x14,-36(x8)
     8bc:	00f707b3          	add	x15,x14,x15
     8c0:	0007a703          	lw	x14,0(x15)
     8c4:	fec42783          	lw	x15,-20(x8)
     8c8:	00279793          	slli	x15,x15,0x2
     8cc:	fdc42683          	lw	x13,-36(x8)
     8d0:	00f687b3          	add	x15,x13,x15
     8d4:	0007a783          	lw	x15,0(x15)
     8d8:	00f75663          	bge	x14,x15,8e4 <fc_soft_max+0x58>
            max = i;
     8dc:	fec42783          	lw	x15,-20(x8)
     8e0:	fef42423          	sw	x15,-24(x8)
    for (i = 1; i < feature_num; i++) {
     8e4:	fec42783          	lw	x15,-20(x8)
     8e8:	00178793          	addi	x15,x15,1
     8ec:	fef42623          	sw	x15,-20(x8)
     8f0:	fec42703          	lw	x14,-20(x8)
     8f4:	fd842783          	lw	x15,-40(x8)
     8f8:	faf74ce3          	blt	x14,x15,8b0 <fc_soft_max+0x24>
    }
    return max;
     8fc:	fe842783          	lw	x15,-24(x8)
}
     900:	00078513          	addi	x10,x15,0
     904:	02c12403          	lw	x8,44(x2)
     908:	03010113          	addi	x2,x2,48
     90c:	00008067          	jalr	x0,0(x1)

00000910 <cnn_layer>:

void cnn_layer(int weights[5][5][5][5], int biasses[5], int inputs[5][5][5], int outputs[5][5][5], int input_channel, int output_channel, int input_size, int kernel_size, int stride, int zero_pad, int af_num){
     910:	fb010113          	addi	x2,x2,-80
     914:	04112623          	sw	x1,76(x2)
     918:	04812423          	sw	x8,72(x2)
     91c:	04912223          	sw	x9,68(x2)
     920:	05010413          	addi	x8,x2,80
     924:	fca42623          	sw	x10,-52(x8)
     928:	fcb42423          	sw	x11,-56(x8)
     92c:	fcc42223          	sw	x12,-60(x8)
     930:	fcd42023          	sw	x13,-64(x8)
     934:	fae42e23          	sw	x14,-68(x8)
     938:	faf42c23          	sw	x15,-72(x8)
     93c:	fb042a23          	sw	x16,-76(x8)
     940:	fb142823          	sw	x17,-80(x8)
    int output_size = ((input_size + (2 * zero_pad) - kernel_size) >> stride) + 1;
     944:	00442783          	lw	x15,4(x8)
     948:	00179713          	slli	x14,x15,0x1
     94c:	fb442783          	lw	x15,-76(x8)
     950:	00f70733          	add	x14,x14,x15
     954:	fb042783          	lw	x15,-80(x8)
     958:	40f70733          	sub	x14,x14,x15
     95c:	00042783          	lw	x15,0(x8)
     960:	40f757b3          	sra	x15,x14,x15
     964:	00178793          	addi	x15,x15,1
     968:	fcf42a23          	sw	x15,-44(x8)
	int o_ch_itr, o_r_itr, o_c_itr, i_ch_itr, k_r_itr, k_c_itr;
	for (o_ch_itr = 0; o_ch_itr < output_channel; o_ch_itr++) {
     96c:	fe042623          	sw	x0,-20(x8)
     970:	3e00006f          	jal	x0,d50 <cnn_layer+0x440>
        for (o_r_itr = 0; o_r_itr < output_size; o_r_itr++) {
     974:	fe042423          	sw	x0,-24(x8)
     978:	3c00006f          	jal	x0,d38 <cnn_layer+0x428>
            for (o_c_itr = 0; o_c_itr < output_size; o_c_itr++) {
     97c:	fe042223          	sw	x0,-28(x8)
     980:	3a00006f          	jal	x0,d20 <cnn_layer+0x410>
                outputs[o_ch_itr][o_r_itr][o_c_itr] = biasses[o_ch_itr];
     984:	fec42783          	lw	x15,-20(x8)
     988:	00279793          	slli	x15,x15,0x2
     98c:	fc842703          	lw	x14,-56(x8)
     990:	00f707b3          	add	x15,x14,x15
     994:	fec42683          	lw	x13,-20(x8)
     998:	06400713          	addi	x14,x0,100
     99c:	02e68733          	mul	x14,x13,x14
     9a0:	fc042683          	lw	x13,-64(x8)
     9a4:	00e68633          	add	x12,x13,x14
     9a8:	0007a683          	lw	x13,0(x15)
     9ac:	fe842703          	lw	x14,-24(x8)
     9b0:	00070793          	addi	x15,x14,0
     9b4:	00279793          	slli	x15,x15,0x2
     9b8:	00e787b3          	add	x15,x15,x14
     9bc:	fe442703          	lw	x14,-28(x8)
     9c0:	00e787b3          	add	x15,x15,x14
     9c4:	00279793          	slli	x15,x15,0x2
     9c8:	00f607b3          	add	x15,x12,x15
     9cc:	00d7a023          	sw	x13,0(x15)
        		for (i_ch_itr = 0; i_ch_itr < input_channel; i_ch_itr++) {
     9d0:	fe042023          	sw	x0,-32(x8)
     9d4:	2140006f          	jal	x0,be8 <cnn_layer+0x2d8>
                    for (k_r_itr = 0; k_r_itr < kernel_size; k_r_itr++) {
     9d8:	fc042e23          	sw	x0,-36(x8)
     9dc:	1f40006f          	jal	x0,bd0 <cnn_layer+0x2c0>
                        for (k_c_itr = 0; k_c_itr < kernel_size; k_c_itr++) {
     9e0:	fc042c23          	sw	x0,-40(x8)
     9e4:	1d40006f          	jal	x0,bb8 <cnn_layer+0x2a8>
                            outputs[o_ch_itr][o_r_itr][o_c_itr] += (((stride*o_r_itr)+k_r_itr-zero_pad) < 0) || (((stride*o_c_itr)+k_c_itr-zero_pad) < 0) || (((stride*o_r_itr)+k_r_itr-zero_pad) >= input_size) || (((stride*o_c_itr)+k_c_itr-zero_pad) >= input_size) ? 0 : inputs[i_ch_itr][(stride*o_r_itr)+k_r_itr-zero_pad][(stride*o_c_itr)+k_c_itr-zero_pad] * weights[o_ch_itr][i_ch_itr][k_r_itr][k_c_itr];
     9e8:	fec42703          	lw	x14,-20(x8)
     9ec:	06400793          	addi	x15,x0,100
     9f0:	02f707b3          	mul	x15,x14,x15
     9f4:	fc042703          	lw	x14,-64(x8)
     9f8:	00f706b3          	add	x13,x14,x15
     9fc:	fe842703          	lw	x14,-24(x8)
     a00:	00070793          	addi	x15,x14,0
     a04:	00279793          	slli	x15,x15,0x2
     a08:	00e787b3          	add	x15,x15,x14
     a0c:	fe442703          	lw	x14,-28(x8)
     a10:	00e787b3          	add	x15,x15,x14
     a14:	00279793          	slli	x15,x15,0x2
     a18:	00f687b3          	add	x15,x13,x15
     a1c:	0007a583          	lw	x11,0(x15)
     a20:	00042703          	lw	x14,0(x8)
     a24:	fe842783          	lw	x15,-24(x8)
     a28:	02f70733          	mul	x14,x14,x15
     a2c:	fdc42783          	lw	x15,-36(x8)
     a30:	00f70733          	add	x14,x14,x15
     a34:	00442783          	lw	x15,4(x8)
     a38:	40f707b3          	sub	x15,x14,x15
     a3c:	1207c863          	blt	x15,x0,b6c <cnn_layer+0x25c>
     a40:	00042703          	lw	x14,0(x8)
     a44:	fe442783          	lw	x15,-28(x8)
     a48:	02f70733          	mul	x14,x14,x15
     a4c:	fd842783          	lw	x15,-40(x8)
     a50:	00f70733          	add	x14,x14,x15
     a54:	00442783          	lw	x15,4(x8)
     a58:	40f707b3          	sub	x15,x14,x15
     a5c:	1007c863          	blt	x15,x0,b6c <cnn_layer+0x25c>
     a60:	00042703          	lw	x14,0(x8)
     a64:	fe842783          	lw	x15,-24(x8)
     a68:	02f70733          	mul	x14,x14,x15
     a6c:	fdc42783          	lw	x15,-36(x8)
     a70:	00f70733          	add	x14,x14,x15
     a74:	00442783          	lw	x15,4(x8)
     a78:	40f707b3          	sub	x15,x14,x15
     a7c:	fb442703          	lw	x14,-76(x8)
     a80:	0ee7d663          	bge	x15,x14,b6c <cnn_layer+0x25c>
     a84:	00042703          	lw	x14,0(x8)
     a88:	fe442783          	lw	x15,-28(x8)
     a8c:	02f70733          	mul	x14,x14,x15
     a90:	fd842783          	lw	x15,-40(x8)
     a94:	00f70733          	add	x14,x14,x15
     a98:	00442783          	lw	x15,4(x8)
     a9c:	40f707b3          	sub	x15,x14,x15
     aa0:	fb442703          	lw	x14,-76(x8)
     aa4:	0ce7d463          	bge	x15,x14,b6c <cnn_layer+0x25c>
     aa8:	fe042703          	lw	x14,-32(x8)
     aac:	06400793          	addi	x15,x0,100
     ab0:	02f707b3          	mul	x15,x14,x15
     ab4:	fc442703          	lw	x14,-60(x8)
     ab8:	00f706b3          	add	x13,x14,x15
     abc:	00042703          	lw	x14,0(x8)
     ac0:	fe842783          	lw	x15,-24(x8)
     ac4:	02f70733          	mul	x14,x14,x15
     ac8:	fdc42783          	lw	x15,-36(x8)
     acc:	00f70733          	add	x14,x14,x15
     ad0:	00442783          	lw	x15,4(x8)
     ad4:	40f70733          	sub	x14,x14,x15
     ad8:	00042603          	lw	x12,0(x8)
     adc:	fe442783          	lw	x15,-28(x8)
     ae0:	02f60633          	mul	x12,x12,x15
     ae4:	fd842783          	lw	x15,-40(x8)
     ae8:	00f60633          	add	x12,x12,x15
     aec:	00442783          	lw	x15,4(x8)
     af0:	40f60633          	sub	x12,x12,x15
     af4:	00070793          	addi	x15,x14,0
     af8:	00279793          	slli	x15,x15,0x2
     afc:	00e787b3          	add	x15,x15,x14
     b00:	00c787b3          	add	x15,x15,x12
     b04:	00279793          	slli	x15,x15,0x2
     b08:	00f687b3          	add	x15,x13,x15
     b0c:	0007a603          	lw	x12,0(x15)
     b10:	fec42703          	lw	x14,-20(x8)
     b14:	1f400793          	addi	x15,x0,500
     b18:	02f707b3          	mul	x15,x14,x15
     b1c:	fcc42703          	lw	x14,-52(x8)
     b20:	00f70533          	add	x10,x14,x15
     b24:	fdc42783          	lw	x15,-36(x8)
     b28:	fe042683          	lw	x13,-32(x8)
     b2c:	00078713          	addi	x14,x15,0
     b30:	00271713          	slli	x14,x14,0x2
     b34:	00f70733          	add	x14,x14,x15
     b38:	00068793          	addi	x15,x13,0
     b3c:	00179793          	slli	x15,x15,0x1
     b40:	00d787b3          	add	x15,x15,x13
     b44:	00379793          	slli	x15,x15,0x3
     b48:	00d787b3          	add	x15,x15,x13
     b4c:	00f70733          	add	x14,x14,x15
     b50:	fd842783          	lw	x15,-40(x8)
     b54:	00f707b3          	add	x15,x14,x15
     b58:	00279793          	slli	x15,x15,0x2
     b5c:	00f507b3          	add	x15,x10,x15
     b60:	0007a783          	lw	x15,0(x15)
     b64:	02f607b3          	mul	x15,x12,x15
     b68:	0080006f          	jal	x0,b70 <cnn_layer+0x260>
     b6c:	00000793          	addi	x15,x0,0
     b70:	fec42683          	lw	x13,-20(x8)
     b74:	06400713          	addi	x14,x0,100
     b78:	02e68733          	mul	x14,x13,x14
     b7c:	fc042683          	lw	x13,-64(x8)
     b80:	00e68633          	add	x12,x13,x14
     b84:	00b786b3          	add	x13,x15,x11
     b88:	fe842703          	lw	x14,-24(x8)
     b8c:	00070793          	addi	x15,x14,0
     b90:	00279793          	slli	x15,x15,0x2
     b94:	00e787b3          	add	x15,x15,x14
     b98:	fe442703          	lw	x14,-28(x8)
     b9c:	00e787b3          	add	x15,x15,x14
     ba0:	00279793          	slli	x15,x15,0x2
     ba4:	00f607b3          	add	x15,x12,x15
     ba8:	00d7a023          	sw	x13,0(x15)
                        for (k_c_itr = 0; k_c_itr < kernel_size; k_c_itr++) {
     bac:	fd842783          	lw	x15,-40(x8)
     bb0:	00178793          	addi	x15,x15,1
     bb4:	fcf42c23          	sw	x15,-40(x8)
     bb8:	fd842703          	lw	x14,-40(x8)
     bbc:	fb042783          	lw	x15,-80(x8)
     bc0:	e2f744e3          	blt	x14,x15,9e8 <cnn_layer+0xd8>
                    for (k_r_itr = 0; k_r_itr < kernel_size; k_r_itr++) {
     bc4:	fdc42783          	lw	x15,-36(x8)
     bc8:	00178793          	addi	x15,x15,1
     bcc:	fcf42e23          	sw	x15,-36(x8)
     bd0:	fdc42703          	lw	x14,-36(x8)
     bd4:	fb042783          	lw	x15,-80(x8)
     bd8:	e0f744e3          	blt	x14,x15,9e0 <cnn_layer+0xd0>
        		for (i_ch_itr = 0; i_ch_itr < input_channel; i_ch_itr++) {
     bdc:	fe042783          	lw	x15,-32(x8)
     be0:	00178793          	addi	x15,x15,1
     be4:	fef42023          	sw	x15,-32(x8)
     be8:	fe042703          	lw	x14,-32(x8)
     bec:	fbc42783          	lw	x15,-68(x8)
     bf0:	def744e3          	blt	x14,x15,9d8 <cnn_layer+0xc8>
                		}
            		}
        		}
                switch (af_num) {
     bf4:	00842783          	lw	x15,8(x8)
     bf8:	00078a63          	beq	x15,x0,c0c <cnn_layer+0x2fc>
     bfc:	00842703          	lw	x14,8(x8)
     c00:	00100793          	addi	x15,x0,1
     c04:	08f70663          	beq	x14,x15,c90 <cnn_layer+0x380>
     c08:	10c0006f          	jal	x0,d14 <cnn_layer+0x404>
                    case 0:
                        outputs[o_ch_itr][o_r_itr][o_c_itr] = relu_af(outputs[o_ch_itr][o_r_itr][o_c_itr]);
     c0c:	fec42703          	lw	x14,-20(x8)
     c10:	06400793          	addi	x15,x0,100
     c14:	02f707b3          	mul	x15,x14,x15
     c18:	fc042703          	lw	x14,-64(x8)
     c1c:	00f706b3          	add	x13,x14,x15
     c20:	fe842703          	lw	x14,-24(x8)
     c24:	00070793          	addi	x15,x14,0
     c28:	00279793          	slli	x15,x15,0x2
     c2c:	00e787b3          	add	x15,x15,x14
     c30:	fe442703          	lw	x14,-28(x8)
     c34:	00e787b3          	add	x15,x15,x14
     c38:	00279793          	slli	x15,x15,0x2
     c3c:	00f687b3          	add	x15,x13,x15
     c40:	0007a683          	lw	x13,0(x15)
     c44:	fec42703          	lw	x14,-20(x8)
     c48:	06400793          	addi	x15,x0,100
     c4c:	02f707b3          	mul	x15,x14,x15
     c50:	fc042703          	lw	x14,-64(x8)
     c54:	00f704b3          	add	x9,x14,x15
     c58:	00068513          	addi	x10,x13,0
     c5c:	00000097          	auipc	x1,0x0
     c60:	8e8080e7          	jalr	x1,-1816(x1) # 544 <relu_af>
     c64:	00050693          	addi	x13,x10,0
     c68:	fe842703          	lw	x14,-24(x8)
     c6c:	00070793          	addi	x15,x14,0
     c70:	00279793          	slli	x15,x15,0x2
     c74:	00e787b3          	add	x15,x15,x14
     c78:	fe442703          	lw	x14,-28(x8)
     c7c:	00e787b3          	add	x15,x15,x14
     c80:	00279793          	slli	x15,x15,0x2
     c84:	00f487b3          	add	x15,x9,x15
     c88:	00d7a023          	sw	x13,0(x15)
                        break;
     c8c:	0880006f          	jal	x0,d14 <cnn_layer+0x404>
                    case 1:
                        outputs[o_ch_itr][o_r_itr][o_c_itr] = relu_af(outputs[o_ch_itr][o_r_itr][o_c_itr]);
     c90:	fec42703          	lw	x14,-20(x8)
     c94:	06400793          	addi	x15,x0,100
     c98:	02f707b3          	mul	x15,x14,x15
     c9c:	fc042703          	lw	x14,-64(x8)
     ca0:	00f706b3          	add	x13,x14,x15
     ca4:	fe842703          	lw	x14,-24(x8)
     ca8:	00070793          	addi	x15,x14,0
     cac:	00279793          	slli	x15,x15,0x2
     cb0:	00e787b3          	add	x15,x15,x14
     cb4:	fe442703          	lw	x14,-28(x8)
     cb8:	00e787b3          	add	x15,x15,x14
     cbc:	00279793          	slli	x15,x15,0x2
     cc0:	00f687b3          	add	x15,x13,x15
     cc4:	0007a683          	lw	x13,0(x15)
     cc8:	fec42703          	lw	x14,-20(x8)
     ccc:	06400793          	addi	x15,x0,100
     cd0:	02f707b3          	mul	x15,x14,x15
     cd4:	fc042703          	lw	x14,-64(x8)
     cd8:	00f704b3          	add	x9,x14,x15
     cdc:	00068513          	addi	x10,x13,0
     ce0:	00000097          	auipc	x1,0x0
     ce4:	864080e7          	jalr	x1,-1948(x1) # 544 <relu_af>
     ce8:	00050693          	addi	x13,x10,0
     cec:	fe842703          	lw	x14,-24(x8)
     cf0:	00070793          	addi	x15,x14,0
     cf4:	00279793          	slli	x15,x15,0x2
     cf8:	00e787b3          	add	x15,x15,x14
     cfc:	fe442703          	lw	x14,-28(x8)
     d00:	00e787b3          	add	x15,x15,x14
     d04:	00279793          	slli	x15,x15,0x2
     d08:	00f487b3          	add	x15,x9,x15
     d0c:	00d7a023          	sw	x13,0(x15)
                        break;
     d10:	00000013          	addi	x0,x0,0
            for (o_c_itr = 0; o_c_itr < output_size; o_c_itr++) {
     d14:	fe442783          	lw	x15,-28(x8)
     d18:	00178793          	addi	x15,x15,1
     d1c:	fef42223          	sw	x15,-28(x8)
     d20:	fe442703          	lw	x14,-28(x8)
     d24:	fd442783          	lw	x15,-44(x8)
     d28:	c4f74ee3          	blt	x14,x15,984 <cnn_layer+0x74>
        for (o_r_itr = 0; o_r_itr < output_size; o_r_itr++) {
     d2c:	fe842783          	lw	x15,-24(x8)
     d30:	00178793          	addi	x15,x15,1
     d34:	fef42423          	sw	x15,-24(x8)
     d38:	fe842703          	lw	x14,-24(x8)
     d3c:	fd442783          	lw	x15,-44(x8)
     d40:	c2f74ee3          	blt	x14,x15,97c <cnn_layer+0x6c>
	for (o_ch_itr = 0; o_ch_itr < output_channel; o_ch_itr++) {
     d44:	fec42783          	lw	x15,-20(x8)
     d48:	00178793          	addi	x15,x15,1
     d4c:	fef42623          	sw	x15,-20(x8)
     d50:	fec42703          	lw	x14,-20(x8)
     d54:	fb842783          	lw	x15,-72(x8)
     d58:	c0f74ee3          	blt	x14,x15,974 <cnn_layer+0x64>
                }
    		}
		}
	}
}
     d5c:	00000013          	addi	x0,x0,0
     d60:	00000013          	addi	x0,x0,0
     d64:	04c12083          	lw	x1,76(x2)
     d68:	04812403          	lw	x8,72(x2)
     d6c:	04412483          	lw	x9,68(x2)
     d70:	05010113          	addi	x2,x2,80
     d74:	00008067          	jalr	x0,0(x1)

00000d78 <cnn_pool>:

void cnn_pool(int inputs[5][5][5], int outputs[5][5][5], int feature_channel, int input_size, int kernel_size, int stride, int zero_pad, int pool_num){
     d78:	fb010113          	addi	x2,x2,-80
     d7c:	04812623          	sw	x8,76(x2)
     d80:	05010413          	addi	x8,x2,80
     d84:	fca42623          	sw	x10,-52(x8)
     d88:	fcb42423          	sw	x11,-56(x8)
     d8c:	fcc42223          	sw	x12,-60(x8)
     d90:	fcd42023          	sw	x13,-64(x8)
     d94:	fae42e23          	sw	x14,-68(x8)
     d98:	faf42c23          	sw	x15,-72(x8)
     d9c:	fb042a23          	sw	x16,-76(x8)
     da0:	fb142823          	sw	x17,-80(x8)
    int output_size = ((input_size + (2 * zero_pad) - kernel_size) >> stride) + 1;
     da4:	fb442783          	lw	x15,-76(x8)
     da8:	00179713          	slli	x14,x15,0x1
     dac:	fc042783          	lw	x15,-64(x8)
     db0:	00f70733          	add	x14,x14,x15
     db4:	fbc42783          	lw	x15,-68(x8)
     db8:	40f70733          	sub	x14,x14,x15
     dbc:	fb842783          	lw	x15,-72(x8)
     dc0:	40f757b3          	sra	x15,x14,x15
     dc4:	00178793          	addi	x15,x15,1
     dc8:	fcf42c23          	sw	x15,-40(x8)
    int new_candidate;
	int ch_itr, o_r_itr, o_c_itr, k_r_itr, k_c_itr;
    for (ch_itr = 0; ch_itr < feature_channel; ch_itr++) {
     dcc:	fe042623          	sw	x0,-20(x8)
     dd0:	3640006f          	jal	x0,1134 <cnn_pool+0x3bc>
        for (o_r_itr = 0; o_r_itr < output_size; o_r_itr++) {
     dd4:	fe042423          	sw	x0,-24(x8)
     dd8:	3440006f          	jal	x0,111c <cnn_pool+0x3a4>
            for (o_c_itr = 0; o_c_itr < output_size; o_c_itr++) {
     ddc:	fe042223          	sw	x0,-28(x8)
     de0:	3240006f          	jal	x0,1104 <cnn_pool+0x38c>
                switch (pool_num) {
     de4:	fb042783          	lw	x15,-80(x8)
     de8:	00078a63          	beq	x15,x0,dfc <cnn_pool+0x84>
     dec:	fb042703          	lw	x14,-80(x8)
     df0:	00100793          	addi	x15,x0,1
     df4:	08f70663          	beq	x14,x15,e80 <cnn_pool+0x108>
     df8:	0c40006f          	jal	x0,ebc <cnn_pool+0x144>
                    case 0:
                        outputs[ch_itr][o_r_itr][o_c_itr] = inputs[ch_itr][stride*o_r_itr][stride*o_c_itr];
     dfc:	fec42703          	lw	x14,-20(x8)
     e00:	06400793          	addi	x15,x0,100
     e04:	02f707b3          	mul	x15,x14,x15
     e08:	fcc42703          	lw	x14,-52(x8)
     e0c:	00f706b3          	add	x13,x14,x15
     e10:	fb842703          	lw	x14,-72(x8)
     e14:	fe842783          	lw	x15,-24(x8)
     e18:	02f70733          	mul	x14,x14,x15
     e1c:	fb842603          	lw	x12,-72(x8)
     e20:	fe442783          	lw	x15,-28(x8)
     e24:	02f605b3          	mul	x11,x12,x15
     e28:	fec42603          	lw	x12,-20(x8)
     e2c:	06400793          	addi	x15,x0,100
     e30:	02f607b3          	mul	x15,x12,x15
     e34:	fc842603          	lw	x12,-56(x8)
     e38:	00f60633          	add	x12,x12,x15
     e3c:	00070793          	addi	x15,x14,0
     e40:	00279793          	slli	x15,x15,0x2
     e44:	00e787b3          	add	x15,x15,x14
     e48:	00b787b3          	add	x15,x15,x11
     e4c:	00279793          	slli	x15,x15,0x2
     e50:	00f687b3          	add	x15,x13,x15
     e54:	0007a683          	lw	x13,0(x15)
     e58:	fe842703          	lw	x14,-24(x8)
     e5c:	00070793          	addi	x15,x14,0
     e60:	00279793          	slli	x15,x15,0x2
     e64:	00e787b3          	add	x15,x15,x14
     e68:	fe442703          	lw	x14,-28(x8)
     e6c:	00e787b3          	add	x15,x15,x14
     e70:	00279793          	slli	x15,x15,0x2
     e74:	00f607b3          	add	x15,x12,x15
     e78:	00d7a023          	sw	x13,0(x15)
                        break;
     e7c:	0400006f          	jal	x0,ebc <cnn_pool+0x144>
                    case 1:
                        outputs[ch_itr][o_r_itr][o_c_itr] = 0;
     e80:	fec42703          	lw	x14,-20(x8)
     e84:	06400793          	addi	x15,x0,100
     e88:	02f707b3          	mul	x15,x14,x15
     e8c:	fc842703          	lw	x14,-56(x8)
     e90:	00f706b3          	add	x13,x14,x15
     e94:	fe842703          	lw	x14,-24(x8)
     e98:	00070793          	addi	x15,x14,0
     e9c:	00279793          	slli	x15,x15,0x2
     ea0:	00e787b3          	add	x15,x15,x14
     ea4:	fe442703          	lw	x14,-28(x8)
     ea8:	00e787b3          	add	x15,x15,x14
     eac:	00279793          	slli	x15,x15,0x2
     eb0:	00f687b3          	add	x15,x13,x15
     eb4:	0007a023          	sw	x0,0(x15)
                        break;
     eb8:	00000013          	addi	x0,x0,0
                }
                for (k_r_itr = 0; k_r_itr < kernel_size; k_r_itr++) {
     ebc:	fe042023          	sw	x0,-32(x8)
     ec0:	1a00006f          	jal	x0,1060 <cnn_pool+0x2e8>
                    for (k_c_itr = 0; k_c_itr < kernel_size; k_c_itr++) {
     ec4:	fc042e23          	sw	x0,-36(x8)
     ec8:	1800006f          	jal	x0,1048 <cnn_pool+0x2d0>
                        new_candidate = inputs[ch_itr][(stride*o_r_itr)+k_r_itr][(stride*o_c_itr)+k_c_itr];
     ecc:	fec42703          	lw	x14,-20(x8)
     ed0:	06400793          	addi	x15,x0,100
     ed4:	02f707b3          	mul	x15,x14,x15
     ed8:	fcc42703          	lw	x14,-52(x8)
     edc:	00f706b3          	add	x13,x14,x15
     ee0:	fb842703          	lw	x14,-72(x8)
     ee4:	fe842783          	lw	x15,-24(x8)
     ee8:	02f70733          	mul	x14,x14,x15
     eec:	fe042783          	lw	x15,-32(x8)
     ef0:	00f70733          	add	x14,x14,x15
     ef4:	fb842603          	lw	x12,-72(x8)
     ef8:	fe442783          	lw	x15,-28(x8)
     efc:	02f60633          	mul	x12,x12,x15
     f00:	fdc42783          	lw	x15,-36(x8)
     f04:	00f60633          	add	x12,x12,x15
     f08:	00070793          	addi	x15,x14,0
     f0c:	00279793          	slli	x15,x15,0x2
     f10:	00e787b3          	add	x15,x15,x14
     f14:	00c787b3          	add	x15,x15,x12
     f18:	00279793          	slli	x15,x15,0x2
     f1c:	00f687b3          	add	x15,x13,x15
     f20:	0007a783          	lw	x15,0(x15)
     f24:	fcf42a23          	sw	x15,-44(x8)
                        switch (pool_num) {
     f28:	fb042783          	lw	x15,-80(x8)
     f2c:	00078a63          	beq	x15,x0,f40 <cnn_pool+0x1c8>
     f30:	fb042703          	lw	x14,-80(x8)
     f34:	00100793          	addi	x15,x0,1
     f38:	08f70463          	beq	x14,x15,fc0 <cnn_pool+0x248>
     f3c:	1000006f          	jal	x0,103c <cnn_pool+0x2c4>
                            case 0:
                                outputs[ch_itr][o_r_itr][o_c_itr] = (outputs[ch_itr][o_r_itr][o_c_itr] < new_candidate) ? new_candidate : outputs[ch_itr][o_r_itr][o_c_itr];
     f40:	fec42703          	lw	x14,-20(x8)
     f44:	06400793          	addi	x15,x0,100
     f48:	02f707b3          	mul	x15,x14,x15
     f4c:	fc842703          	lw	x14,-56(x8)
     f50:	00f706b3          	add	x13,x14,x15
     f54:	fe842703          	lw	x14,-24(x8)
     f58:	00070793          	addi	x15,x14,0
     f5c:	00279793          	slli	x15,x15,0x2
     f60:	00e787b3          	add	x15,x15,x14
     f64:	fe442703          	lw	x14,-28(x8)
     f68:	00e787b3          	add	x15,x15,x14
     f6c:	00279793          	slli	x15,x15,0x2
     f70:	00f687b3          	add	x15,x13,x15
     f74:	0007a783          	lw	x15,0(x15)
     f78:	fec42683          	lw	x13,-20(x8)
     f7c:	06400713          	addi	x14,x0,100
     f80:	02e68733          	mul	x14,x13,x14
     f84:	fc842683          	lw	x13,-56(x8)
     f88:	00e68633          	add	x12,x13,x14
     f8c:	fd442703          	lw	x14,-44(x8)
     f90:	00f75463          	bge	x14,x15,f98 <cnn_pool+0x220>
     f94:	00078713          	addi	x14,x15,0
     f98:	fe842683          	lw	x13,-24(x8)
     f9c:	00068793          	addi	x15,x13,0
     fa0:	00279793          	slli	x15,x15,0x2
     fa4:	00d787b3          	add	x15,x15,x13
     fa8:	fe442683          	lw	x13,-28(x8)
     fac:	00d787b3          	add	x15,x15,x13
     fb0:	00279793          	slli	x15,x15,0x2
     fb4:	00f607b3          	add	x15,x12,x15
     fb8:	00e7a023          	sw	x14,0(x15)
                                break;
     fbc:	0800006f          	jal	x0,103c <cnn_pool+0x2c4>
                            case 1:
                                outputs[ch_itr][o_r_itr][o_c_itr] += new_candidate;
     fc0:	fec42703          	lw	x14,-20(x8)
     fc4:	06400793          	addi	x15,x0,100
     fc8:	02f707b3          	mul	x15,x14,x15
     fcc:	fc842703          	lw	x14,-56(x8)
     fd0:	00f706b3          	add	x13,x14,x15
     fd4:	fe842703          	lw	x14,-24(x8)
     fd8:	00070793          	addi	x15,x14,0
     fdc:	00279793          	slli	x15,x15,0x2
     fe0:	00e787b3          	add	x15,x15,x14
     fe4:	fe442703          	lw	x14,-28(x8)
     fe8:	00e787b3          	add	x15,x15,x14
     fec:	00279793          	slli	x15,x15,0x2
     ff0:	00f687b3          	add	x15,x13,x15
     ff4:	0007a703          	lw	x14,0(x15)
     ff8:	fec42683          	lw	x13,-20(x8)
     ffc:	06400793          	addi	x15,x0,100
    1000:	02f687b3          	mul	x15,x13,x15
    1004:	fc842683          	lw	x13,-56(x8)
    1008:	00f68633          	add	x12,x13,x15
    100c:	fd442783          	lw	x15,-44(x8)
    1010:	00f706b3          	add	x13,x14,x15
    1014:	fe842703          	lw	x14,-24(x8)
    1018:	00070793          	addi	x15,x14,0
    101c:	00279793          	slli	x15,x15,0x2
    1020:	00e787b3          	add	x15,x15,x14
    1024:	fe442703          	lw	x14,-28(x8)
    1028:	00e787b3          	add	x15,x15,x14
    102c:	00279793          	slli	x15,x15,0x2
    1030:	00f607b3          	add	x15,x12,x15
    1034:	00d7a023          	sw	x13,0(x15)
                                break;
    1038:	00000013          	addi	x0,x0,0
                    for (k_c_itr = 0; k_c_itr < kernel_size; k_c_itr++) {
    103c:	fdc42783          	lw	x15,-36(x8)
    1040:	00178793          	addi	x15,x15,1
    1044:	fcf42e23          	sw	x15,-36(x8)
    1048:	fdc42703          	lw	x14,-36(x8)
    104c:	fbc42783          	lw	x15,-68(x8)
    1050:	e6f74ee3          	blt	x14,x15,ecc <cnn_pool+0x154>
                for (k_r_itr = 0; k_r_itr < kernel_size; k_r_itr++) {
    1054:	fe042783          	lw	x15,-32(x8)
    1058:	00178793          	addi	x15,x15,1
    105c:	fef42023          	sw	x15,-32(x8)
    1060:	fe042703          	lw	x14,-32(x8)
    1064:	fbc42783          	lw	x15,-68(x8)
    1068:	e4f74ee3          	blt	x14,x15,ec4 <cnn_pool+0x14c>
                        }
                    }
        		}
                switch (pool_num) {
    106c:	fb042703          	lw	x14,-80(x8)
    1070:	00100793          	addi	x15,x0,1
    1074:	08f71263          	bne	x14,x15,10f8 <cnn_pool+0x380>
                    case 1:
                        outputs[ch_itr][o_r_itr][o_c_itr] = outputs[ch_itr][o_r_itr][o_c_itr] - (kernel_size * kernel_size);
    1078:	fec42703          	lw	x14,-20(x8)
    107c:	06400793          	addi	x15,x0,100
    1080:	02f707b3          	mul	x15,x14,x15
    1084:	fc842703          	lw	x14,-56(x8)
    1088:	00f706b3          	add	x13,x14,x15
    108c:	fe842703          	lw	x14,-24(x8)
    1090:	00070793          	addi	x15,x14,0
    1094:	00279793          	slli	x15,x15,0x2
    1098:	00e787b3          	add	x15,x15,x14
    109c:	fe442703          	lw	x14,-28(x8)
    10a0:	00e787b3          	add	x15,x15,x14
    10a4:	00279793          	slli	x15,x15,0x2
    10a8:	00f687b3          	add	x15,x13,x15
    10ac:	0007a703          	lw	x14,0(x15)
    10b0:	fbc42783          	lw	x15,-68(x8)
    10b4:	02f787b3          	mul	x15,x15,x15
    10b8:	fec42603          	lw	x12,-20(x8)
    10bc:	06400693          	addi	x13,x0,100
    10c0:	02d606b3          	mul	x13,x12,x13
    10c4:	fc842603          	lw	x12,-56(x8)
    10c8:	00d60633          	add	x12,x12,x13
    10cc:	40f706b3          	sub	x13,x14,x15
    10d0:	fe842703          	lw	x14,-24(x8)
    10d4:	00070793          	addi	x15,x14,0
    10d8:	00279793          	slli	x15,x15,0x2
    10dc:	00e787b3          	add	x15,x15,x14
    10e0:	fe442703          	lw	x14,-28(x8)
    10e4:	00e787b3          	add	x15,x15,x14
    10e8:	00279793          	slli	x15,x15,0x2
    10ec:	00f607b3          	add	x15,x12,x15
    10f0:	00d7a023          	sw	x13,0(x15)
                        break;
    10f4:	00000013          	addi	x0,x0,0
            for (o_c_itr = 0; o_c_itr < output_size; o_c_itr++) {
    10f8:	fe442783          	lw	x15,-28(x8)
    10fc:	00178793          	addi	x15,x15,1
    1100:	fef42223          	sw	x15,-28(x8)
    1104:	fe442703          	lw	x14,-28(x8)
    1108:	fd842783          	lw	x15,-40(x8)
    110c:	ccf74ce3          	blt	x14,x15,de4 <cnn_pool+0x6c>
        for (o_r_itr = 0; o_r_itr < output_size; o_r_itr++) {
    1110:	fe842783          	lw	x15,-24(x8)
    1114:	00178793          	addi	x15,x15,1
    1118:	fef42423          	sw	x15,-24(x8)
    111c:	fe842703          	lw	x14,-24(x8)
    1120:	fd842783          	lw	x15,-40(x8)
    1124:	caf74ce3          	blt	x14,x15,ddc <cnn_pool+0x64>
    for (ch_itr = 0; ch_itr < feature_channel; ch_itr++) {
    1128:	fec42783          	lw	x15,-20(x8)
    112c:	00178793          	addi	x15,x15,1
    1130:	fef42623          	sw	x15,-20(x8)
    1134:	fec42703          	lw	x14,-20(x8)
    1138:	fc442783          	lw	x15,-60(x8)
    113c:	c8f74ce3          	blt	x14,x15,dd4 <cnn_pool+0x5c>
                }
    		}
		}
	}
}
    1140:	00000013          	addi	x0,x0,0
    1144:	00000013          	addi	x0,x0,0
    1148:	04c12403          	lw	x8,76(x2)
    114c:	05010113          	addi	x2,x2,80
    1150:	00008067          	jalr	x0,0(x1)

00001154 <cnn_input_generator>:

void cnn_input_generator(int inputs[5][5][5], int input_channel, int input_size){
    1154:	fd010113          	addi	x2,x2,-48
    1158:	02112623          	sw	x1,44(x2)
    115c:	02812423          	sw	x8,40(x2)
    1160:	03010413          	addi	x8,x2,48
    1164:	fca42e23          	sw	x10,-36(x8)
    1168:	fcb42c23          	sw	x11,-40(x8)
    116c:	fcc42a23          	sw	x12,-44(x8)
	int i_ch_itr, i_r_itr, i_c_itr;
	for (i_ch_itr = 0; i_ch_itr < input_channel; i_ch_itr++) {
    1170:	fe042623          	sw	x0,-20(x8)
    1174:	09c0006f          	jal	x0,1210 <cnn_input_generator+0xbc>
        for (i_r_itr = 0; i_r_itr < input_size; i_r_itr++) {
    1178:	fe042423          	sw	x0,-24(x8)
    117c:	07c0006f          	jal	x0,11f8 <cnn_input_generator+0xa4>
            for (i_c_itr = 0; i_c_itr < input_size; i_c_itr++) {
    1180:	fe042223          	sw	x0,-28(x8)
    1184:	05c0006f          	jal	x0,11e0 <cnn_input_generator+0x8c>
                inputs[i_ch_itr][i_r_itr][i_c_itr] = (random_gen()&15) - 5;
    1188:	fffff097          	auipc	x1,0xfffff
    118c:	34c080e7          	jalr	x1,844(x1) # 4d4 <random_gen>
    1190:	00050793          	addi	x15,x10,0
    1194:	00f7f793          	andi	x15,x15,15
    1198:	fec42683          	lw	x13,-20(x8)
    119c:	06400713          	addi	x14,x0,100
    11a0:	02e68733          	mul	x14,x13,x14
    11a4:	fdc42683          	lw	x13,-36(x8)
    11a8:	00e68633          	add	x12,x13,x14
    11ac:	ffb78693          	addi	x13,x15,-5
    11b0:	fe842703          	lw	x14,-24(x8)
    11b4:	00070793          	addi	x15,x14,0
    11b8:	00279793          	slli	x15,x15,0x2
    11bc:	00e787b3          	add	x15,x15,x14
    11c0:	fe442703          	lw	x14,-28(x8)
    11c4:	00e787b3          	add	x15,x15,x14
    11c8:	00279793          	slli	x15,x15,0x2
    11cc:	00f607b3          	add	x15,x12,x15
    11d0:	00d7a023          	sw	x13,0(x15)
            for (i_c_itr = 0; i_c_itr < input_size; i_c_itr++) {
    11d4:	fe442783          	lw	x15,-28(x8)
    11d8:	00178793          	addi	x15,x15,1
    11dc:	fef42223          	sw	x15,-28(x8)
    11e0:	fe442703          	lw	x14,-28(x8)
    11e4:	fd442783          	lw	x15,-44(x8)
    11e8:	faf740e3          	blt	x14,x15,1188 <cnn_input_generator+0x34>
        for (i_r_itr = 0; i_r_itr < input_size; i_r_itr++) {
    11ec:	fe842783          	lw	x15,-24(x8)
    11f0:	00178793          	addi	x15,x15,1
    11f4:	fef42423          	sw	x15,-24(x8)
    11f8:	fe842703          	lw	x14,-24(x8)
    11fc:	fd442783          	lw	x15,-44(x8)
    1200:	f8f740e3          	blt	x14,x15,1180 <cnn_input_generator+0x2c>
	for (i_ch_itr = 0; i_ch_itr < input_channel; i_ch_itr++) {
    1204:	fec42783          	lw	x15,-20(x8)
    1208:	00178793          	addi	x15,x15,1
    120c:	fef42623          	sw	x15,-20(x8)
    1210:	fec42703          	lw	x14,-20(x8)
    1214:	fd842783          	lw	x15,-40(x8)
    1218:	f6f740e3          	blt	x14,x15,1178 <cnn_input_generator+0x24>
            }
        }
    }
}
    121c:	00000013          	addi	x0,x0,0
    1220:	00000013          	addi	x0,x0,0
    1224:	02c12083          	lw	x1,44(x2)
    1228:	02812403          	lw	x8,40(x2)
    122c:	03010113          	addi	x2,x2,48
    1230:	00008067          	jalr	x0,0(x1)

00001234 <cnn_weight_generator>:

void cnn_weight_generator(int weights[5][5][5][5], int biasses[5], int input_channel, int output_channel, int kernel_size){
    1234:	fc010113          	addi	x2,x2,-64
    1238:	02112e23          	sw	x1,60(x2)
    123c:	02812c23          	sw	x8,56(x2)
    1240:	04010413          	addi	x8,x2,64
    1244:	fca42e23          	sw	x10,-36(x8)
    1248:	fcb42c23          	sw	x11,-40(x8)
    124c:	fcc42a23          	sw	x12,-44(x8)
    1250:	fcd42823          	sw	x13,-48(x8)
    1254:	fce42623          	sw	x14,-52(x8)
	int o_ch_itr, i_ch_itr, k_r_itr, k_c_itr;
	for (o_ch_itr = 0; o_ch_itr < output_channel; o_ch_itr++) {
    1258:	fe042623          	sw	x0,-20(x8)
    125c:	1000006f          	jal	x0,135c <cnn_weight_generator+0x128>
        biasses[o_ch_itr] = (random_gen()&15) - 5;
    1260:	fffff097          	auipc	x1,0xfffff
    1264:	274080e7          	jalr	x1,628(x1) # 4d4 <random_gen>
    1268:	00050793          	addi	x15,x10,0
    126c:	00f7f713          	andi	x14,x15,15
    1270:	fec42783          	lw	x15,-20(x8)
    1274:	00279793          	slli	x15,x15,0x2
    1278:	fd842683          	lw	x13,-40(x8)
    127c:	00f687b3          	add	x15,x13,x15
    1280:	ffb70713          	addi	x14,x14,-5
    1284:	00e7a023          	sw	x14,0(x15)
        for (i_ch_itr = 0; i_ch_itr < input_channel; i_ch_itr++) {
    1288:	fe042423          	sw	x0,-24(x8)
    128c:	0b80006f          	jal	x0,1344 <cnn_weight_generator+0x110>
            for (k_r_itr = 0; k_r_itr < kernel_size; k_r_itr++) {
    1290:	fe042223          	sw	x0,-28(x8)
    1294:	0980006f          	jal	x0,132c <cnn_weight_generator+0xf8>
                for (k_c_itr = 0; k_c_itr < kernel_size; k_c_itr++) {
    1298:	fe042023          	sw	x0,-32(x8)
    129c:	0780006f          	jal	x0,1314 <cnn_weight_generator+0xe0>
                    weights[o_ch_itr][i_ch_itr][k_r_itr][k_c_itr] = (random_gen()&15) - 5;
    12a0:	fffff097          	auipc	x1,0xfffff
    12a4:	234080e7          	jalr	x1,564(x1) # 4d4 <random_gen>
    12a8:	00050793          	addi	x15,x10,0
    12ac:	00f7f793          	andi	x15,x15,15
    12b0:	fec42683          	lw	x13,-20(x8)
    12b4:	1f400713          	addi	x14,x0,500
    12b8:	02e68733          	mul	x14,x13,x14
    12bc:	fdc42683          	lw	x13,-36(x8)
    12c0:	00e685b3          	add	x11,x13,x14
    12c4:	ffb78613          	addi	x12,x15,-5
    12c8:	fe442783          	lw	x15,-28(x8)
    12cc:	fe842683          	lw	x13,-24(x8)
    12d0:	00078713          	addi	x14,x15,0
    12d4:	00271713          	slli	x14,x14,0x2
    12d8:	00f70733          	add	x14,x14,x15
    12dc:	00068793          	addi	x15,x13,0
    12e0:	00179793          	slli	x15,x15,0x1
    12e4:	00d787b3          	add	x15,x15,x13
    12e8:	00379793          	slli	x15,x15,0x3
    12ec:	00d787b3          	add	x15,x15,x13
    12f0:	00f70733          	add	x14,x14,x15
    12f4:	fe042783          	lw	x15,-32(x8)
    12f8:	00f707b3          	add	x15,x14,x15
    12fc:	00279793          	slli	x15,x15,0x2
    1300:	00f587b3          	add	x15,x11,x15
    1304:	00c7a023          	sw	x12,0(x15)
                for (k_c_itr = 0; k_c_itr < kernel_size; k_c_itr++) {
    1308:	fe042783          	lw	x15,-32(x8)
    130c:	00178793          	addi	x15,x15,1
    1310:	fef42023          	sw	x15,-32(x8)
    1314:	fe042703          	lw	x14,-32(x8)
    1318:	fcc42783          	lw	x15,-52(x8)
    131c:	f8f742e3          	blt	x14,x15,12a0 <cnn_weight_generator+0x6c>
            for (k_r_itr = 0; k_r_itr < kernel_size; k_r_itr++) {
    1320:	fe442783          	lw	x15,-28(x8)
    1324:	00178793          	addi	x15,x15,1
    1328:	fef42223          	sw	x15,-28(x8)
    132c:	fe442703          	lw	x14,-28(x8)
    1330:	fcc42783          	lw	x15,-52(x8)
    1334:	f6f742e3          	blt	x14,x15,1298 <cnn_weight_generator+0x64>
        for (i_ch_itr = 0; i_ch_itr < input_channel; i_ch_itr++) {
    1338:	fe842783          	lw	x15,-24(x8)
    133c:	00178793          	addi	x15,x15,1
    1340:	fef42423          	sw	x15,-24(x8)
    1344:	fe842703          	lw	x14,-24(x8)
    1348:	fd442783          	lw	x15,-44(x8)
    134c:	f4f742e3          	blt	x14,x15,1290 <cnn_weight_generator+0x5c>
	for (o_ch_itr = 0; o_ch_itr < output_channel; o_ch_itr++) {
    1350:	fec42783          	lw	x15,-20(x8)
    1354:	00178793          	addi	x15,x15,1
    1358:	fef42623          	sw	x15,-20(x8)
    135c:	fec42703          	lw	x14,-20(x8)
    1360:	fd042783          	lw	x15,-48(x8)
    1364:	eef74ee3          	blt	x14,x15,1260 <cnn_weight_generator+0x2c>
                }
            }
        }
    }
}
    1368:	00000013          	addi	x0,x0,0
    136c:	00000013          	addi	x0,x0,0
    1370:	03c12083          	lw	x1,60(x2)
    1374:	03812403          	lw	x8,56(x2)
    1378:	04010113          	addi	x2,x2,64
    137c:	00008067          	jalr	x0,0(x1)

00001380 <cnn_to_fc>:

void cnn_to_fc(int cnn_feature[5][5][5], int cnn_feature_channel, int cnn_feature_size, int fc_feature[5]){
    1380:	fd010113          	addi	x2,x2,-48
    1384:	02812623          	sw	x8,44(x2)
    1388:	03010413          	addi	x8,x2,48
    138c:	fca42e23          	sw	x10,-36(x8)
    1390:	fcb42c23          	sw	x11,-40(x8)
    1394:	fcc42a23          	sw	x12,-44(x8)
    1398:	fcd42823          	sw	x13,-48(x8)
	int ch_itr, r_itr, c_itr;
	for (ch_itr = 0; ch_itr < cnn_feature_channel; ch_itr++) {
    139c:	fe042623          	sw	x0,-20(x8)
    13a0:	0c40006f          	jal	x0,1464 <cnn_to_fc+0xe4>
        for (r_itr = 0; r_itr < cnn_feature_size; r_itr++) {
    13a4:	fe042423          	sw	x0,-24(x8)
    13a8:	0a40006f          	jal	x0,144c <cnn_to_fc+0xcc>
            for (c_itr = 0; c_itr < cnn_feature_size; c_itr++) {
    13ac:	fe042223          	sw	x0,-28(x8)
    13b0:	0840006f          	jal	x0,1434 <cnn_to_fc+0xb4>
                fc_feature[(ch_itr*cnn_feature_size*cnn_feature_size)+(r_itr*cnn_feature_size)+c_itr] = cnn_feature[ch_itr][r_itr][c_itr];
    13b4:	fec42703          	lw	x14,-20(x8)
    13b8:	06400793          	addi	x15,x0,100
    13bc:	02f707b3          	mul	x15,x14,x15
    13c0:	fdc42703          	lw	x14,-36(x8)
    13c4:	00f70633          	add	x12,x14,x15
    13c8:	fec42703          	lw	x14,-20(x8)
    13cc:	fd442783          	lw	x15,-44(x8)
    13d0:	02f70733          	mul	x14,x14,x15
    13d4:	fd442783          	lw	x15,-44(x8)
    13d8:	02f70733          	mul	x14,x14,x15
    13dc:	fe842683          	lw	x13,-24(x8)
    13e0:	fd442783          	lw	x15,-44(x8)
    13e4:	02f687b3          	mul	x15,x13,x15
    13e8:	00f70733          	add	x14,x14,x15
    13ec:	fe442783          	lw	x15,-28(x8)
    13f0:	00f707b3          	add	x15,x14,x15
    13f4:	00279793          	slli	x15,x15,0x2
    13f8:	fd042703          	lw	x14,-48(x8)
    13fc:	00f706b3          	add	x13,x14,x15
    1400:	fe842703          	lw	x14,-24(x8)
    1404:	00070793          	addi	x15,x14,0
    1408:	00279793          	slli	x15,x15,0x2
    140c:	00e787b3          	add	x15,x15,x14
    1410:	fe442703          	lw	x14,-28(x8)
    1414:	00e787b3          	add	x15,x15,x14
    1418:	00279793          	slli	x15,x15,0x2
    141c:	00f607b3          	add	x15,x12,x15
    1420:	0007a783          	lw	x15,0(x15)
    1424:	00f6a023          	sw	x15,0(x13)
            for (c_itr = 0; c_itr < cnn_feature_size; c_itr++) {
    1428:	fe442783          	lw	x15,-28(x8)
    142c:	00178793          	addi	x15,x15,1
    1430:	fef42223          	sw	x15,-28(x8)
    1434:	fe442703          	lw	x14,-28(x8)
    1438:	fd442783          	lw	x15,-44(x8)
    143c:	f6f74ce3          	blt	x14,x15,13b4 <cnn_to_fc+0x34>
        for (r_itr = 0; r_itr < cnn_feature_size; r_itr++) {
    1440:	fe842783          	lw	x15,-24(x8)
    1444:	00178793          	addi	x15,x15,1
    1448:	fef42423          	sw	x15,-24(x8)
    144c:	fe842703          	lw	x14,-24(x8)
    1450:	fd442783          	lw	x15,-44(x8)
    1454:	f4f74ce3          	blt	x14,x15,13ac <cnn_to_fc+0x2c>
	for (ch_itr = 0; ch_itr < cnn_feature_channel; ch_itr++) {
    1458:	fec42783          	lw	x15,-20(x8)
    145c:	00178793          	addi	x15,x15,1
    1460:	fef42623          	sw	x15,-20(x8)
    1464:	fec42703          	lw	x14,-20(x8)
    1468:	fd842783          	lw	x15,-40(x8)
    146c:	f2f74ce3          	blt	x14,x15,13a4 <cnn_to_fc+0x24>
            }
        }
    }
}
    1470:	00000013          	addi	x0,x0,0
    1474:	00000013          	addi	x0,x0,0
    1478:	02c12403          	lw	x8,44(x2)
    147c:	03010113          	addi	x2,x2,48
    1480:	00008067          	jalr	x0,0(x1)

00001484 <main>:


int main(){
    1484:	81010113          	addi	x2,x2,-2032
    1488:	7e112623          	sw	x1,2028(x2)
    148c:	7e812423          	sw	x8,2024(x2)
    1490:	7f010413          	addi	x8,x2,2032
    1494:	94010113          	addi	x2,x2,-1728
    int cnn_af_type;
    int cnn_pool_type;

	int itr;

    for (itr = 0; itr < TEST_ITR; itr++) {
    1498:	fe042623          	sw	x0,-20(x8)
    149c:	2180006f          	jal	x0,16b4 <main+0x230>
        //layer 1
        cnn_output_channel = 5;
    14a0:	00500793          	addi	x15,x0,5
    14a4:	fef42423          	sw	x15,-24(x8)
        cnn_input_channel = 5;
    14a8:	00500793          	addi	x15,x0,5
    14ac:	fef42223          	sw	x15,-28(x8)
        cnn_input_size = 5;
    14b0:	00500793          	addi	x15,x0,5
    14b4:	fef42023          	sw	x15,-32(x8)
        cnn_kernel_size = 2;
    14b8:	00200793          	addi	x15,x0,2
    14bc:	fcf42e23          	sw	x15,-36(x8)
        cnn_stride = 1;
    14c0:	00100793          	addi	x15,x0,1
    14c4:	fcf42c23          	sw	x15,-40(x8)
        cnn_zero_padd = 0;
    14c8:	fc042a23          	sw	x0,-44(x8)
        cnn_af_type = 2;
    14cc:	00200793          	addi	x15,x0,2
    14d0:	fcf42823          	sw	x15,-48(x8)

        cnn_input_generator(cnn_inputs, cnn_input_channel, cnn_input_size);
    14d4:	fffff7b7          	lui	x15,0xfffff
    14d8:	36478793          	addi	x15,x15,868 # fffff364 <_sp+0xfffef364>
    14dc:	ff078793          	addi	x15,x15,-16
    14e0:	008787b3          	add	x15,x15,x8
    14e4:	fe042603          	lw	x12,-32(x8)
    14e8:	fe442583          	lw	x11,-28(x8)
    14ec:	00078513          	addi	x10,x15,0
    14f0:	00000097          	auipc	x1,0x0
    14f4:	c64080e7          	jalr	x1,-924(x1) # 1154 <cnn_input_generator>
        cnn_weight_generator(cnn_weights, cnn_biasses, cnn_input_channel, cnn_output_channel, cnn_kernel_size);
    14f8:	fffff7b7          	lui	x15,0xfffff
    14fc:	55878793          	addi	x15,x15,1368 # fffff558 <_sp+0xfffef558>
    1500:	ff078793          	addi	x15,x15,-16
    1504:	008785b3          	add	x11,x15,x8
    1508:	fffff7b7          	lui	x15,0xfffff
    150c:	56c78793          	addi	x15,x15,1388 # fffff56c <_sp+0xfffef56c>
    1510:	ff078793          	addi	x15,x15,-16
    1514:	008787b3          	add	x15,x15,x8
    1518:	fdc42703          	lw	x14,-36(x8)
    151c:	fe842683          	lw	x13,-24(x8)
    1520:	fe442603          	lw	x12,-28(x8)
    1524:	00078513          	addi	x10,x15,0
    1528:	00000097          	auipc	x1,0x0
    152c:	d0c080e7          	jalr	x1,-756(x1) # 1234 <cnn_weight_generator>
        cnn_layer(cnn_weights, cnn_biasses, cnn_inputs, cnn_outputs, cnn_input_channel, cnn_output_channel, cnn_input_size, cnn_kernel_size, cnn_stride, cnn_zero_padd, cnn_af_type);
    1530:	fffff7b7          	lui	x15,0xfffff
    1534:	17078793          	addi	x15,x15,368 # fffff170 <_sp+0xfffef170>
    1538:	ff078793          	addi	x15,x15,-16
    153c:	008786b3          	add	x13,x15,x8
    1540:	fffff7b7          	lui	x15,0xfffff
    1544:	36478793          	addi	x15,x15,868 # fffff364 <_sp+0xfffef364>
    1548:	ff078793          	addi	x15,x15,-16
    154c:	00878633          	add	x12,x15,x8
    1550:	fffff7b7          	lui	x15,0xfffff
    1554:	55878793          	addi	x15,x15,1368 # fffff558 <_sp+0xfffef558>
    1558:	ff078793          	addi	x15,x15,-16
    155c:	008785b3          	add	x11,x15,x8
    1560:	fffff7b7          	lui	x15,0xfffff
    1564:	56c78793          	addi	x15,x15,1388 # fffff56c <_sp+0xfffef56c>
    1568:	ff078793          	addi	x15,x15,-16
    156c:	00878533          	add	x10,x15,x8
    1570:	fd042783          	lw	x15,-48(x8)
    1574:	00f12423          	sw	x15,8(x2)
    1578:	fd442783          	lw	x15,-44(x8)
    157c:	00f12223          	sw	x15,4(x2)
    1580:	fd842783          	lw	x15,-40(x8)
    1584:	00f12023          	sw	x15,0(x2)
    1588:	fdc42883          	lw	x17,-36(x8)
    158c:	fe042803          	lw	x16,-32(x8)
    1590:	fe842783          	lw	x15,-24(x8)
    1594:	fe442703          	lw	x14,-28(x8)
    1598:	fffff097          	auipc	x1,0xfffff
    159c:	378080e7          	jalr	x1,888(x1) # 910 <cnn_layer>

        cnn_output_channel = 5;
    15a0:	00500793          	addi	x15,x0,5
    15a4:	fef42423          	sw	x15,-24(x8)
        cnn_input_channel = 5;
    15a8:	00500793          	addi	x15,x0,5
    15ac:	fef42223          	sw	x15,-28(x8)
        cnn_input_size = 4;
    15b0:	00400793          	addi	x15,x0,4
    15b4:	fef42023          	sw	x15,-32(x8)
        cnn_kernel_size = 2;
    15b8:	00200793          	addi	x15,x0,2
    15bc:	fcf42e23          	sw	x15,-36(x8)
        cnn_stride = 2;
    15c0:	00200793          	addi	x15,x0,2
    15c4:	fcf42c23          	sw	x15,-40(x8)
        cnn_zero_padd = 0;
    15c8:	fc042a23          	sw	x0,-44(x8)
        cnn_pool_type = 0;
    15cc:	fc042623          	sw	x0,-52(x8)

        cnn_pool(cnn_outputs, cnn_inputs, cnn_input_channel, cnn_input_size, cnn_kernel_size, cnn_stride, cnn_zero_padd, cnn_pool_type);
    15d0:	fffff7b7          	lui	x15,0xfffff
    15d4:	36478793          	addi	x15,x15,868 # fffff364 <_sp+0xfffef364>
    15d8:	ff078793          	addi	x15,x15,-16
    15dc:	008785b3          	add	x11,x15,x8
    15e0:	fffff7b7          	lui	x15,0xfffff
    15e4:	17078793          	addi	x15,x15,368 # fffff170 <_sp+0xfffef170>
    15e8:	ff078793          	addi	x15,x15,-16
    15ec:	00878533          	add	x10,x15,x8
    15f0:	fcc42883          	lw	x17,-52(x8)
    15f4:	fd442803          	lw	x16,-44(x8)
    15f8:	fd842783          	lw	x15,-40(x8)
    15fc:	fdc42703          	lw	x14,-36(x8)
    1600:	fe042683          	lw	x13,-32(x8)
    1604:	fe442603          	lw	x12,-28(x8)
    1608:	fffff097          	auipc	x1,0xfffff
    160c:	770080e7          	jalr	x1,1904(x1) # d78 <cnn_pool>

        //layer conversion
        cnn_to_fc(cnn_inputs, 5, 1, fc_inputs);
    1610:	f3440713          	addi	x14,x8,-204
    1614:	fffff7b7          	lui	x15,0xfffff
    1618:	36478793          	addi	x15,x15,868 # fffff364 <_sp+0xfffef364>
    161c:	ff078793          	addi	x15,x15,-16
    1620:	008787b3          	add	x15,x15,x8
    1624:	00070693          	addi	x13,x14,0
    1628:	00100613          	addi	x12,x0,1
    162c:	00500593          	addi	x11,x0,5
    1630:	00078513          	addi	x10,x15,0
    1634:	00000097          	auipc	x1,0x0
    1638:	d4c080e7          	jalr	x1,-692(x1) # 1380 <cnn_to_fc>

        //first FC layer
        fc_input_num = 5;
    163c:	00500793          	addi	x15,x0,5
    1640:	fcf42423          	sw	x15,-56(x8)
        fc_output_num = 5;
    1644:	00500793          	addi	x15,x0,5
    1648:	fcf42223          	sw	x15,-60(x8)
        fc_af_type = 0;
    164c:	fc042023          	sw	x0,-64(x8)

        fc_input_generator(fc_inputs, fc_input_num);
    1650:	f3440793          	addi	x15,x8,-204
    1654:	fc842583          	lw	x11,-56(x8)
    1658:	00078513          	addi	x10,x15,0
    165c:	fffff097          	auipc	x1,0xfffff
    1660:	0d4080e7          	jalr	x1,212(x1) # 730 <fc_input_generator>
        fc_weight_generator(fc_weights, fc_biasses, fc_input_num, fc_output_num);
    1664:	f4840713          	addi	x14,x8,-184
    1668:	f5c40793          	addi	x15,x8,-164
    166c:	fc442683          	lw	x13,-60(x8)
    1670:	fc842603          	lw	x12,-56(x8)
    1674:	00070593          	addi	x11,x14,0
    1678:	00078513          	addi	x10,x15,0
    167c:	fffff097          	auipc	x1,0xfffff
    1680:	12c080e7          	jalr	x1,300(x1) # 7a8 <fc_weight_generator>
        fc_layer(fc_weights, fc_biasses, fc_inputs, fc_outputs, fc_input_num, fc_output_num, fc_af_type);
    1684:	f2040693          	addi	x13,x8,-224
    1688:	f3440613          	addi	x12,x8,-204
    168c:	f4840593          	addi	x11,x8,-184
    1690:	f5c40513          	addi	x10,x8,-164
    1694:	fc042803          	lw	x16,-64(x8)
    1698:	fc442783          	lw	x15,-60(x8)
    169c:	fc842703          	lw	x14,-56(x8)
    16a0:	fffff097          	auipc	x1,0xfffff
    16a4:	ed8080e7          	jalr	x1,-296(x1) # 578 <fc_layer>
    for (itr = 0; itr < TEST_ITR; itr++) {
    16a8:	fec42783          	lw	x15,-20(x8)
    16ac:	00178793          	addi	x15,x15,1
    16b0:	fef42623          	sw	x15,-20(x8)
    16b4:	fec42703          	lw	x14,-20(x8)
    16b8:	00200793          	addi	x15,x0,2
    16bc:	dee7d2e3          	bge	x15,x14,14a0 <main+0x1c>

    }

	return 0;
    16c0:	00000793          	addi	x15,x0,0

}
    16c4:	00078513          	addi	x10,x15,0
    16c8:	6c010113          	addi	x2,x2,1728
    16cc:	7ec12083          	lw	x1,2028(x2)
    16d0:	7e812403          	lw	x8,2024(x2)
    16d4:	7f010113          	addi	x2,x2,2032
    16d8:	00008067          	jalr	x0,0(x1)

000016dc <memset>:
    16dc:	433d                	c.li	x6,15
    16de:	872a                	c.mv	x14,x10
    16e0:	02c37363          	bgeu	x6,x12,1706 <memset+0x2a>
    16e4:	00f77793          	andi	x15,x14,15
    16e8:	efbd                	c.bnez	x15,1766 <memset+0x8a>
    16ea:	e5ad                	c.bnez	x11,1754 <memset+0x78>
    16ec:	ff067693          	andi	x13,x12,-16
    16f0:	8a3d                	c.andi	x12,15
    16f2:	96ba                	c.add	x13,x14
    16f4:	c30c                	c.sw	x11,0(x14)
    16f6:	c34c                	c.sw	x11,4(x14)
    16f8:	c70c                	c.sw	x11,8(x14)
    16fa:	c74c                	c.sw	x11,12(x14)
    16fc:	0741                	c.addi	x14,16
    16fe:	fed76be3          	bltu	x14,x13,16f4 <memset+0x18>
    1702:	e211                	c.bnez	x12,1706 <memset+0x2a>
    1704:	8082                	c.jr	x1
    1706:	40c306b3          	sub	x13,x6,x12
    170a:	068a                	c.slli	x13,0x2
    170c:	00000297          	auipc	x5,0x0
    1710:	9696                	c.add	x13,x5
    1712:	00a68067          	jalr	x0,10(x13)
    1716:	00b70723          	sb	x11,14(x14)
    171a:	00b706a3          	sb	x11,13(x14)
    171e:	00b70623          	sb	x11,12(x14)
    1722:	00b705a3          	sb	x11,11(x14)
    1726:	00b70523          	sb	x11,10(x14)
    172a:	00b704a3          	sb	x11,9(x14)
    172e:	00b70423          	sb	x11,8(x14)
    1732:	00b703a3          	sb	x11,7(x14)
    1736:	00b70323          	sb	x11,6(x14)
    173a:	00b702a3          	sb	x11,5(x14)
    173e:	00b70223          	sb	x11,4(x14)
    1742:	00b701a3          	sb	x11,3(x14)
    1746:	00b70123          	sb	x11,2(x14)
    174a:	00b700a3          	sb	x11,1(x14)
    174e:	00b70023          	sb	x11,0(x14)
    1752:	8082                	c.jr	x1
    1754:	0ff5f593          	andi	x11,x11,255
    1758:	00859693          	slli	x13,x11,0x8
    175c:	8dd5                	c.or	x11,x13
    175e:	01059693          	slli	x13,x11,0x10
    1762:	8dd5                	c.or	x11,x13
    1764:	b761                	c.j	16ec <memset+0x10>
    1766:	00279693          	slli	x13,x15,0x2
    176a:	00000297          	auipc	x5,0x0
    176e:	9696                	c.add	x13,x5
    1770:	8286                	c.mv	x5,x1
    1772:	fa8680e7          	jalr	x1,-88(x13)
    1776:	8096                	c.mv	x1,x5
    1778:	17c1                	c.addi	x15,-16
    177a:	8f1d                	c.sub	x14,x15
    177c:	963e                	c.add	x12,x15
    177e:	f8c374e3          	bgeu	x6,x12,1706 <memset+0x2a>
    1782:	b7a5                	c.j	16ea <memset+0xe>
	...
