
program.debug_basic_malloc.elf:     file format elf32-littleriscv


Disassembly of section .text:

00000000 <crt>:

.global crt
.section .text.prologue, "ax"
.align 4
crt:
	nop
   0:	00000013          	addi	zero,zero,0
	la ra, exit
   4:	00000097          	auipc	ra,0x0
   8:	09c08093          	addi	ra,ra,156 # a0 <exit>
	la sp, _sp
   c:	00010117          	auipc	sp,0x10
  10:	ff410113          	addi	sp,sp,-12 # 10000 <_sp>
	mv s0, sp
  14:	00010413          	addi	s0,sp,0
	la gp, __global_pointer$
  18:	00001197          	auipc	gp,0x1
  1c:	e8818193          	addi	gp,gp,-376 # ea0 <__global_pointer$>
	li tp, 0
  20:	00000213          	addi	tp,zero,0
	li t0, 0
  24:	00000293          	addi	t0,zero,0
	li t1, 0
  28:	00000313          	addi	t1,zero,0
	li t2, 0
  2c:	00000393          	addi	t2,zero,0
	li s1, 0
  30:	00000493          	addi	s1,zero,0
	li a0, 0
  34:	00000513          	addi	a0,zero,0
	li a1, 0
  38:	00000593          	addi	a1,zero,0
	li a2, 0
  3c:	00000613          	addi	a2,zero,0
	li a3, 0
  40:	00000693          	addi	a3,zero,0
	li a4, 0
  44:	00000713          	addi	a4,zero,0
	li a5, 0
  48:	00000793          	addi	a5,zero,0
	li a6, 0
  4c:	00000813          	addi	a6,zero,0
	li a7, 0
  50:	00000893          	addi	a7,zero,0
	li s2, 0
  54:	00000913          	addi	s2,zero,0
	li s3, 0
  58:	00000993          	addi	s3,zero,0
	li s4, 0
  5c:	00000a13          	addi	s4,zero,0
	li s5, 0
  60:	00000a93          	addi	s5,zero,0
	li s6, 0
  64:	00000b13          	addi	s6,zero,0
	li s7, 0
  68:	00000b93          	addi	s7,zero,0
	li s8, 0
  6c:	00000c13          	addi	s8,zero,0
	li s9, 0
  70:	00000c93          	addi	s9,zero,0
	li s10, 0
  74:	00000d13          	addi	s10,zero,0
	li s11, 0
  78:	00000d93          	addi	s11,zero,0
	li t3, 0
  7c:	00000e13          	addi	t3,zero,0
	li t4, 0
  80:	00000e93          	addi	t4,zero,0
	li t5, 0
  84:	00000f13          	addi	t5,zero,0
	li t6, 0
  88:	00000f93          	addi	t6,zero,0
	j main
  8c:	4480006f          	jal	zero,4d4 <main>
	...

000000a0 <exit>:

.global exit
.section .text
.align 4
exit:
	la sp, _sp
  a0:	00010117          	auipc	sp,0x10
  a4:	f6010113          	addi	sp,sp,-160 # 10000 <_sp>
	sw a0, -8(sp)
  a8:	fea12c23          	sw	a0,-8(sp)
	nop
  ac:	00000013          	addi	zero,zero,0
	wfi
  b0:	10500073          	wfi

000000b4 <tj_free>:
} Header;
static Header base; //empty list to get started
static Header *freep = NULL; //start of the free list


void tj_free(void *mem) {
  b4:	fd010113          	addi	sp,sp,-48
  b8:	02112623          	sw	ra,44(sp)
  bc:	02812423          	sw	s0,40(sp)
  c0:	03010413          	addi	s0,sp,48
  c4:	fca42e23          	sw	a0,-36(s0)
	//sanity check, we don't want to free memory that's not
	//in the heap
	if (mem < (void *)heap || mem > (void *)(heap + sizeof(heap)))
  c8:	fdc42703          	lw	a4,-36(s0)
  cc:	000007b7          	lui	a5,0x0
  d0:	6e078793          	addi	a5,a5,1760 # 6e0 <heap>
  d4:	00f76a63          	bltu	a4,a5,e8 <tj_free+0x34>
  d8:	000047b7          	lui	a5,0x4
  dc:	6e078793          	addi	a5,a5,1760 # 46e0 <base>
  e0:	fdc42703          	lw	a4,-36(s0)
  e4:	00e7f863          	bgeu	a5,a4,f4 <tj_free+0x40>
		exit(1);
  e8:	00100513          	addi	a0,zero,1
  ec:	00000097          	auipc	ra,0x0
  f0:	fb4080e7          	jalr	ra,-76(ra) # a0 <exit>

	Header *bp, *p;
	bp = (Header *)mem - 1; //point to block header
  f4:	fdc42783          	lw	a5,-36(s0)
  f8:	ff878793          	addi	a5,a5,-8
  fc:	fef42423          	sw	a5,-24(s0)
	//scan the free list to see where the current block should sit in between
	for (p = freep; !(bp > p && bp < p->next); p = p->next) 
 100:	000047b7          	lui	a5,0x4
 104:	6e87a783          	lw	a5,1768(a5) # 46e8 <freep>
 108:	fef42623          	sw	a5,-20(s0)
 10c:	03c0006f          	jal	zero,148 <tj_free+0x94>
		// self wrapped free list with only one entry
		//                  or you are just at the very beginning/end
		if (p >= p->next && (bp > p || bp < p->next))
 110:	fec42783          	lw	a5,-20(s0)
 114:	0007a783          	lw	a5,0(a5)
 118:	fec42703          	lw	a4,-20(s0)
 11c:	02f76063          	bltu	a4,a5,13c <tj_free+0x88>
 120:	fe842703          	lw	a4,-24(s0)
 124:	fec42783          	lw	a5,-20(s0)
 128:	02e7ee63          	bltu	a5,a4,164 <tj_free+0xb0>
 12c:	fec42783          	lw	a5,-20(s0)
 130:	0007a783          	lw	a5,0(a5)
 134:	fe842703          	lw	a4,-24(s0)
 138:	02f76663          	bltu	a4,a5,164 <tj_free+0xb0>
	for (p = freep; !(bp > p && bp < p->next); p = p->next) 
 13c:	fec42783          	lw	a5,-20(s0)
 140:	0007a783          	lw	a5,0(a5)
 144:	fef42623          	sw	a5,-20(s0)
 148:	fe842703          	lw	a4,-24(s0)
 14c:	fec42783          	lw	a5,-20(s0)
 150:	fce7f0e3          	bgeu	a5,a4,110 <tj_free+0x5c>
 154:	fec42783          	lw	a5,-20(s0)
 158:	0007a783          	lw	a5,0(a5)
 15c:	fe842703          	lw	a4,-24(s0)
 160:	faf778e3          	bgeu	a4,a5,110 <tj_free+0x5c>
			break; //freed block at start of end of the arena
		//we can merge the 2 free blocks if they are adjacent to each other
		//or we just can append a new entry into the free list
	if (bp + bp->size == p->next) { //join to upper nbr
 164:	fe842783          	lw	a5,-24(s0)
 168:	0047a783          	lw	a5,4(a5)
 16c:	00379793          	slli	a5,a5,0x3
 170:	fe842703          	lw	a4,-24(s0)
 174:	00f70733          	add	a4,a4,a5
 178:	fec42783          	lw	a5,-20(s0)
 17c:	0007a783          	lw	a5,0(a5)
 180:	02f71e63          	bne	a4,a5,1bc <tj_free+0x108>
		//merge if exactly adjacent
		bp->size += p->next->size;
 184:	fe842783          	lw	a5,-24(s0)
 188:	0047a703          	lw	a4,4(a5)
 18c:	fec42783          	lw	a5,-20(s0)
 190:	0007a783          	lw	a5,0(a5)
 194:	0047a783          	lw	a5,4(a5)
 198:	00f70733          	add	a4,a4,a5
 19c:	fe842783          	lw	a5,-24(s0)
 1a0:	00e7a223          	sw	a4,4(a5)
		bp->next = p->next->next;
 1a4:	fec42783          	lw	a5,-20(s0)
 1a8:	0007a783          	lw	a5,0(a5)
 1ac:	0007a703          	lw	a4,0(a5)
 1b0:	fe842783          	lw	a5,-24(s0)
 1b4:	00e7a023          	sw	a4,0(a5)
 1b8:	0140006f          	jal	zero,1cc <tj_free+0x118>
	} else
		bp->next = p->next; //insert bp after p in the linked list
 1bc:	fec42783          	lw	a5,-20(s0)
 1c0:	0007a703          	lw	a4,0(a5)
 1c4:	fe842783          	lw	a5,-24(s0)
 1c8:	00e7a023          	sw	a4,0(a5)
		//if p is freep which is base, then this will make the newly
		//allocated block point to base

	if (p + p->size == bp) { //join to lower nbr
 1cc:	fec42783          	lw	a5,-20(s0)
 1d0:	0047a783          	lw	a5,4(a5)
 1d4:	00379793          	slli	a5,a5,0x3
 1d8:	fec42703          	lw	a4,-20(s0)
 1dc:	00f707b3          	add	a5,a4,a5
 1e0:	fe842703          	lw	a4,-24(s0)
 1e4:	02f71a63          	bne	a4,a5,218 <tj_free+0x164>
		//merge if exactly adjacent
		p->size += bp->size;
 1e8:	fec42783          	lw	a5,-20(s0)
 1ec:	0047a703          	lw	a4,4(a5)
 1f0:	fe842783          	lw	a5,-24(s0)
 1f4:	0047a783          	lw	a5,4(a5)
 1f8:	00f70733          	add	a4,a4,a5
 1fc:	fec42783          	lw	a5,-20(s0)
 200:	00e7a223          	sw	a4,4(a5)
		p->next = bp->next;
 204:	fe842783          	lw	a5,-24(s0)
 208:	0007a703          	lw	a4,0(a5)
 20c:	fec42783          	lw	a5,-20(s0)
 210:	00e7a023          	sw	a4,0(a5)
 214:	0100006f          	jal	zero,224 <tj_free+0x170>
	} else //or just append to linked list
		p->next = bp; //again, if the free list is just the base
 218:	fec42783          	lw	a5,-20(s0)
 21c:	fe842703          	lw	a4,-24(s0)
 220:	00e7a023          	sw	a4,0(a5)
		//then effectively we just created a new entry
		//and make it point to the base which has a size of 0
	freep = p;
 224:	000047b7          	lui	a5,0x4
 228:	fec42703          	lw	a4,-20(s0)
 22c:	6ee7a423          	sw	a4,1768(a5) # 46e8 <freep>
}
 230:	00000013          	addi	zero,zero,0
 234:	02c12083          	lw	ra,44(sp)
 238:	02812403          	lw	s0,40(sp)
 23c:	03010113          	addi	sp,sp,48
 240:	00008067          	jalr	zero,0(ra)

00000244 <getmoremem>:

static Header* getmoremem(unsigned int total_size) {
 244:	fd010113          	addi	sp,sp,-48
 248:	02112623          	sw	ra,44(sp)
 24c:	02812423          	sw	s0,40(sp)
 250:	03010413          	addi	s0,sp,48
 254:	fca42e23          	sw	a0,-36(s0)
	if (avail_mem < total_size) return NULL; //gg, we ran out of mem :P
 258:	000007b7          	lui	a5,0x0
 25c:	6c47a783          	lw	a5,1732(a5) # 6c4 <avail_mem>
 260:	fdc42703          	lw	a4,-36(s0)
 264:	00e7f663          	bgeu	a5,a4,270 <getmoremem+0x2c>
 268:	00000793          	addi	a5,zero,0
 26c:	0700006f          	jal	zero,2dc <getmoremem+0x98>
	Header* up = (Header *)next_index;
 270:	000007b7          	lui	a5,0x0
 274:	6c07a783          	lw	a5,1728(a5) # 6c0 <next_index>
 278:	fef42623          	sw	a5,-20(s0)
	next_index += total_size; //allocate the block
 27c:	000007b7          	lui	a5,0x0
 280:	6c07a703          	lw	a4,1728(a5) # 6c0 <next_index>
 284:	fdc42783          	lw	a5,-36(s0)
 288:	00f70733          	add	a4,a4,a5
 28c:	000007b7          	lui	a5,0x0
 290:	6ce7a023          	sw	a4,1728(a5) # 6c0 <next_index>
	avail_mem -= total_size; //deduct from avail mem;
 294:	000007b7          	lui	a5,0x0
 298:	6c47a703          	lw	a4,1732(a5) # 6c4 <avail_mem>
 29c:	fdc42783          	lw	a5,-36(s0)
 2a0:	40f70733          	sub	a4,a4,a5
 2a4:	000007b7          	lui	a5,0x0
 2a8:	6ce7a223          	sw	a4,1732(a5) # 6c4 <avail_mem>
	up->size = total_size - sizeof(Header); //set the size right
 2ac:	fdc42783          	lw	a5,-36(s0)
 2b0:	ff878713          	addi	a4,a5,-8
 2b4:	fec42783          	lw	a5,-20(s0)
 2b8:	00e7a223          	sw	a4,4(a5)
	tj_free((void *)(++up)); //append the new block to the free list first
 2bc:	fec42783          	lw	a5,-20(s0)
 2c0:	00878793          	addi	a5,a5,8
 2c4:	fef42623          	sw	a5,-20(s0)
 2c8:	fec42503          	lw	a0,-20(s0)
 2cc:	00000097          	auipc	ra,0x0
 2d0:	de8080e7          	jalr	ra,-536(ra) # b4 <tj_free>
	return freep;
 2d4:	000047b7          	lui	a5,0x4
 2d8:	6e87a783          	lw	a5,1768(a5) # 46e8 <freep>
}
 2dc:	00078513          	addi	a0,a5,0
 2e0:	02c12083          	lw	ra,44(sp)
 2e4:	02812403          	lw	s0,40(sp)
 2e8:	03010113          	addi	sp,sp,48
 2ec:	00008067          	jalr	zero,0(ra)

000002f0 <tj_malloc>:

void *tj_malloc(unsigned int size) {
 2f0:	fd010113          	addi	sp,sp,-48
 2f4:	02112623          	sw	ra,44(sp)
 2f8:	02812423          	sw	s0,40(sp)
 2fc:	03010413          	addi	s0,sp,48
 300:	fca42e23          	sw	a0,-36(s0)
	//sanity check, so that you don't blow the memory space
	if (size > sizeof(heap)) return NULL;
 304:	fdc42703          	lw	a4,-36(s0)
 308:	000047b7          	lui	a5,0x4
 30c:	00e7f663          	bgeu	a5,a4,318 <tj_malloc+0x28>
 310:	00000793          	addi	a5,zero,0
 314:	15c0006f          	jal	zero,470 <tj_malloc+0x180>
	//we want strict word alignment just to make things easier
	//and so that we don't have improper alignment issues
	if ((size & 3) != 0) {
 318:	fdc42783          	lw	a5,-36(s0)
 31c:	0037f793          	andi	a5,a5,3
 320:	00078a63          	beq	a5,zero,334 <tj_malloc+0x44>
		size = size + 4 - (size & 3);
 324:	fdc42783          	lw	a5,-36(s0)
 328:	ffc7f793          	andi	a5,a5,-4
 32c:	00478793          	addi	a5,a5,4 # 4004 <__global_pointer$+0x3164>
 330:	fcf42e23          	sw	a5,-36(s0)
	}

	//we want to build a linked list of the existing blocks and free blocks
	Header *p, *prevp; //iterators
	
	unsigned int total_size = size + sizeof(Header); //need to include the header size as well
 334:	fdc42783          	lw	a5,-36(s0)
 338:	00878793          	addi	a5,a5,8
 33c:	fef42223          	sw	a5,-28(s0)
	//check the linked list
	prevp = freep;
 340:	000047b7          	lui	a5,0x4
 344:	6e87a783          	lw	a5,1768(a5) # 46e8 <freep>
 348:	fef42423          	sw	a5,-24(s0)
	//if there's no linked list yet
	if (prevp == NULL) {
 34c:	fe842783          	lw	a5,-24(s0)
 350:	02079e63          	bne	a5,zero,38c <tj_malloc+0x9c>
		prevp = &base;
 354:	000047b7          	lui	a5,0x4
 358:	6e078793          	addi	a5,a5,1760 # 46e0 <base>
 35c:	fef42423          	sw	a5,-24(s0)
		freep = prevp;
 360:	000047b7          	lui	a5,0x4
 364:	fe842703          	lw	a4,-24(s0)
 368:	6ee7a423          	sw	a4,1768(a5) # 46e8 <freep>
		base.next = freep;
 36c:	000047b7          	lui	a5,0x4
 370:	6e87a703          	lw	a4,1768(a5) # 46e8 <freep>
 374:	000047b7          	lui	a5,0x4
 378:	6e078793          	addi	a5,a5,1760 # 46e0 <base>
 37c:	00e7a023          	sw	a4,0(a5)
		base.size = 0;
 380:	000047b7          	lui	a5,0x4
 384:	6e078793          	addi	a5,a5,1760 # 46e0 <base>
 388:	0007a223          	sw	zero,4(a5)
	}
	//traverse through the linked list, note there's no stopping condition
	for (p = prevp->next; ;prevp = p, p = p->next) {
 38c:	fe842783          	lw	a5,-24(s0)
 390:	0007a783          	lw	a5,0(a5)
 394:	fef42623          	sw	a5,-20(s0)
		if (p->size >= size) { //big enough
 398:	fec42783          	lw	a5,-20(s0)
 39c:	0047a783          	lw	a5,4(a5)
 3a0:	fdc42703          	lw	a4,-36(s0)
 3a4:	08e7e263          	bltu	a5,a4,428 <tj_malloc+0x138>
			if (p->size == size) // exact size
 3a8:	fec42783          	lw	a5,-20(s0)
 3ac:	0047a783          	lw	a5,4(a5)
 3b0:	fdc42703          	lw	a4,-36(s0)
 3b4:	00f71c63          	bne	a4,a5,3cc <tj_malloc+0xdc>
				prevp->next = p->next; // just return that block
 3b8:	fec42783          	lw	a5,-20(s0)
 3bc:	0007a703          	lw	a4,0(a5)
 3c0:	fe842783          	lw	a5,-24(s0)
 3c4:	00e7a023          	sw	a4,0(a5)
 3c8:	0400006f          	jal	zero,408 <tj_malloc+0x118>
			else {
				p->size -= total_size; //break up the block
 3cc:	fec42783          	lw	a5,-20(s0)
 3d0:	0047a703          	lw	a4,4(a5)
 3d4:	fe442783          	lw	a5,-28(s0)
 3d8:	40f70733          	sub	a4,a4,a5
 3dc:	fec42783          	lw	a5,-20(s0)
 3e0:	00e7a223          	sw	a4,4(a5)
				p += p->size;
 3e4:	fec42783          	lw	a5,-20(s0)
 3e8:	0047a783          	lw	a5,4(a5)
 3ec:	00379793          	slli	a5,a5,0x3
 3f0:	fec42703          	lw	a4,-20(s0)
 3f4:	00f707b3          	add	a5,a4,a5
 3f8:	fef42623          	sw	a5,-20(s0)
				p->size = size;
 3fc:	fec42783          	lw	a5,-20(s0)
 400:	fdc42703          	lw	a4,-36(s0)
 404:	00e7a223          	sw	a4,4(a5)
			}
			freep = prevp;
 408:	000047b7          	lui	a5,0x4
 40c:	fe842703          	lw	a4,-24(s0)
 410:	6ee7a423          	sw	a4,1768(a5) # 46e8 <freep>
#ifdef DEBUG
			printf("returned pointer is %i\n", (int)p + 1);
#endif
			return (void *)(++p);
 414:	fec42783          	lw	a5,-20(s0)
 418:	00878793          	addi	a5,a5,8
 41c:	fef42623          	sw	a5,-20(s0)
 420:	fec42783          	lw	a5,-20(s0)
 424:	04c0006f          	jal	zero,470 <tj_malloc+0x180>
		}
		if (p == freep) //wrapped around free list
 428:	000047b7          	lui	a5,0x4
 42c:	6e87a783          	lw	a5,1768(a5) # 46e8 <freep>
 430:	fec42703          	lw	a4,-20(s0)
 434:	02f71263          	bne	a4,a5,458 <tj_malloc+0x168>
			if ((p = getmoremem(total_size)) == NULL) //if the heap runs out
 438:	fe442503          	lw	a0,-28(s0)
 43c:	00000097          	auipc	ra,0x0
 440:	e08080e7          	jalr	ra,-504(ra) # 244 <getmoremem>
 444:	fea42623          	sw	a0,-20(s0)
 448:	fec42783          	lw	a5,-20(s0)
 44c:	00079663          	bne	a5,zero,458 <tj_malloc+0x168>
				return NULL; //well, you got nothing left, gg
 450:	00000793          	addi	a5,zero,0
 454:	01c0006f          	jal	zero,470 <tj_malloc+0x180>
	for (p = prevp->next; ;prevp = p, p = p->next) {
 458:	fec42783          	lw	a5,-20(s0)
 45c:	fef42423          	sw	a5,-24(s0)
 460:	fec42783          	lw	a5,-20(s0)
 464:	0007a783          	lw	a5,0(a5)
 468:	fef42623          	sw	a5,-20(s0)
		if (p->size >= size) { //big enough
 46c:	f2dff06f          	jal	zero,398 <tj_malloc+0xa8>
	}
}
 470:	00078513          	addi	a0,a5,0
 474:	02c12083          	lw	ra,44(sp)
 478:	02812403          	lw	s0,40(sp)
 47c:	03010113          	addi	sp,sp,48
 480:	00008067          	jalr	zero,0(ra)

00000484 <tj_calloc>:

void *tj_calloc(unsigned int size) {
 484:	fd010113          	addi	sp,sp,-48
 488:	02112623          	sw	ra,44(sp)
 48c:	02812423          	sw	s0,40(sp)
 490:	03010413          	addi	s0,sp,48
 494:	fca42e23          	sw	a0,-36(s0)
	void *mem = tj_malloc(size);
 498:	fdc42503          	lw	a0,-36(s0)
 49c:	00000097          	auipc	ra,0x0
 4a0:	e54080e7          	jalr	ra,-428(ra) # 2f0 <tj_malloc>
 4a4:	fea42623          	sw	a0,-20(s0)
	memset(mem, 0, size);
 4a8:	fdc42603          	lw	a2,-36(s0)
 4ac:	00000593          	addi	a1,zero,0
 4b0:	fec42503          	lw	a0,-20(s0)
 4b4:	00000097          	auipc	ra,0x0
 4b8:	124080e7          	jalr	ra,292(ra) # 5d8 <memset>
	return mem;
 4bc:	fec42783          	lw	a5,-20(s0)
}
 4c0:	00078513          	addi	a0,a5,0
 4c4:	02c12083          	lw	ra,44(sp)
 4c8:	02812403          	lw	s0,40(sp)
 4cc:	03010113          	addi	sp,sp,48
 4d0:	00008067          	jalr	zero,0(ra)

000004d4 <main>:
	bool goat;
	int gronk;
	int edelman;
} example_t;

int main() {
 4d4:	fe010113          	addi	sp,sp,-32
 4d8:	00112e23          	sw	ra,28(sp)
 4dc:	00812c23          	sw	s0,24(sp)
 4e0:	02010413          	addi	s0,sp,32
	example_t* pats = (example_t*)tj_malloc(sizeof(example_t));
 4e4:	01000513          	addi	a0,zero,16
 4e8:	00000097          	auipc	ra,0x0
 4ec:	e08080e7          	jalr	ra,-504(ra) # 2f0 <tj_malloc>
 4f0:	fea42623          	sw	a0,-20(s0)
#ifdef DEBUG
	printf("pts is %i\n", (int)pats);
	printf("what\n");
#endif
	pats->brady = 12; // as of 02/2019
 4f4:	fec42783          	lw	a5,-20(s0)
 4f8:	00c00713          	addi	a4,zero,12
 4fc:	00e7a023          	sw	a4,0(a5)
	pats->rings = 6;
 500:	fec42783          	lw	a5,-20(s0)
 504:	00600713          	addi	a4,zero,6
 508:	00e79223          	sh	a4,4(a5)
	pats->goat = 1; // hands down the goat
 50c:	fec42783          	lw	a5,-20(s0)
 510:	00100713          	addi	a4,zero,1
 514:	00e78323          	sb	a4,6(a5)
	pats->gronk = 87; // tide pods
 518:	fec42783          	lw	a5,-20(s0)
 51c:	05700713          	addi	a4,zero,87
 520:	00e7a423          	sw	a4,8(a5)
	pats->edelman = 11; // the ironman, superbowl 53 mvp
 524:	fec42783          	lw	a5,-20(s0)
 528:	00b00713          	addi	a4,zero,11
 52c:	00e7a623          	sw	a4,12(a5)
#ifdef DEBUG
	printf("%i\n", pats->edelman);
#endif
	example_t* another = (example_t*)tj_malloc(sizeof(example_t));
 530:	01000513          	addi	a0,zero,16
 534:	00000097          	auipc	ra,0x0
 538:	dbc080e7          	jalr	ra,-580(ra) # 2f0 <tj_malloc>
 53c:	fea42423          	sw	a0,-24(s0)
#ifdef DEBUG
	printf("pts is %i\n", (int)another);
#endif
	tj_free(pats);
 540:	fec42503          	lw	a0,-20(s0)
 544:	00000097          	auipc	ra,0x0
 548:	b70080e7          	jalr	ra,-1168(ra) # b4 <tj_free>
	example_t* third = (example_t*)tj_malloc(sizeof(example_t));
 54c:	01000513          	addi	a0,zero,16
 550:	00000097          	auipc	ra,0x0
 554:	da0080e7          	jalr	ra,-608(ra) # 2f0 <tj_malloc>
 558:	fea42223          	sw	a0,-28(s0)
	another->rings = 2003;
 55c:	fe842783          	lw	a5,-24(s0)
 560:	7d300713          	addi	a4,zero,2003
 564:	00e79223          	sh	a4,4(a5)
	third->rings = 2004;
 568:	fe442783          	lw	a5,-28(s0)
 56c:	7d400713          	addi	a4,zero,2004
 570:	00e79223          	sh	a4,4(a5)
#ifdef DEBUG
	printf("created third %i\n", (int)third);
#endif
	//let's make this test calloc
	example_t* latest = (example_t*)tj_calloc(sizeof(example_t));
 574:	01000513          	addi	a0,zero,16
 578:	00000097          	auipc	ra,0x0
 57c:	f0c080e7          	jalr	ra,-244(ra) # 484 <tj_calloc>
 580:	fea42023          	sw	a0,-32(s0)
	latest->rings = 2019;
 584:	fe042783          	lw	a5,-32(s0)
 588:	7e300713          	addi	a4,zero,2019
 58c:	00e79223          	sh	a4,4(a5)
	if (latest->goat != 0) exit(2);
 590:	fe042783          	lw	a5,-32(s0)
 594:	0067c783          	lbu	a5,6(a5)
 598:	00078863          	beq	a5,zero,5a8 <main+0xd4>
 59c:	00200513          	addi	a0,zero,2
 5a0:	00000097          	auipc	ra,0x0
 5a4:	b00080e7          	jalr	ra,-1280(ra) # a0 <exit>
	tj_free(another);
 5a8:	fe842503          	lw	a0,-24(s0)
 5ac:	00000097          	auipc	ra,0x0
 5b0:	b08080e7          	jalr	ra,-1272(ra) # b4 <tj_free>
	tj_free(latest);
 5b4:	fe042503          	lw	a0,-32(s0)
 5b8:	00000097          	auipc	ra,0x0
 5bc:	afc080e7          	jalr	ra,-1284(ra) # b4 <tj_free>
	return 0;
 5c0:	00000793          	addi	a5,zero,0
}
 5c4:	00078513          	addi	a0,a5,0
 5c8:	01c12083          	lw	ra,28(sp)
 5cc:	01812403          	lw	s0,24(sp)
 5d0:	02010113          	addi	sp,sp,32
 5d4:	00008067          	jalr	zero,0(ra)

000005d8 <memset>:
 5d8:	433d                	c.li	t1,15
 5da:	872a                	c.mv	a4,a0
 5dc:	02c37363          	bgeu	t1,a2,602 <memset+0x2a>
 5e0:	00f77793          	andi	a5,a4,15
 5e4:	efbd                	c.bnez	a5,662 <memset+0x8a>
 5e6:	e5ad                	c.bnez	a1,650 <memset+0x78>
 5e8:	ff067693          	andi	a3,a2,-16
 5ec:	8a3d                	c.andi	a2,15
 5ee:	96ba                	c.add	a3,a4
 5f0:	c30c                	c.sw	a1,0(a4)
 5f2:	c34c                	c.sw	a1,4(a4)
 5f4:	c70c                	c.sw	a1,8(a4)
 5f6:	c74c                	c.sw	a1,12(a4)
 5f8:	0741                	c.addi	a4,16
 5fa:	fed76be3          	bltu	a4,a3,5f0 <memset+0x18>
 5fe:	e211                	c.bnez	a2,602 <memset+0x2a>
 600:	8082                	c.jr	ra
 602:	40c306b3          	sub	a3,t1,a2
 606:	068a                	c.slli	a3,0x2
 608:	00000297          	auipc	t0,0x0
 60c:	9696                	c.add	a3,t0
 60e:	00a68067          	jalr	zero,10(a3)
 612:	00b70723          	sb	a1,14(a4)
 616:	00b706a3          	sb	a1,13(a4)
 61a:	00b70623          	sb	a1,12(a4)
 61e:	00b705a3          	sb	a1,11(a4)
 622:	00b70523          	sb	a1,10(a4)
 626:	00b704a3          	sb	a1,9(a4)
 62a:	00b70423          	sb	a1,8(a4)
 62e:	00b703a3          	sb	a1,7(a4)
 632:	00b70323          	sb	a1,6(a4)
 636:	00b702a3          	sb	a1,5(a4)
 63a:	00b70223          	sb	a1,4(a4)
 63e:	00b701a3          	sb	a1,3(a4)
 642:	00b70123          	sb	a1,2(a4)
 646:	00b700a3          	sb	a1,1(a4)
 64a:	00b70023          	sb	a1,0(a4)
 64e:	8082                	c.jr	ra
 650:	0ff5f593          	andi	a1,a1,255
 654:	00859693          	slli	a3,a1,0x8
 658:	8dd5                	c.or	a1,a3
 65a:	01059693          	slli	a3,a1,0x10
 65e:	8dd5                	c.or	a1,a3
 660:	b761                	c.j	5e8 <memset+0x10>
 662:	00279693          	slli	a3,a5,0x2
 666:	00000297          	auipc	t0,0x0
 66a:	9696                	c.add	a3,t0
 66c:	8286                	c.mv	t0,ra
 66e:	fa8680e7          	jalr	ra,-88(a3)
 672:	8096                	c.mv	ra,t0
 674:	17c1                	c.addi	a5,-16
 676:	8f1d                	c.sub	a4,a5
 678:	963e                	c.add	a2,a5
 67a:	f8c374e3          	bgeu	t1,a2,602 <memset+0x2a>
 67e:	b7a5                	c.j	5e6 <memset+0xe>
	...
