
program.debug_priority_queue.elf:     file format elf32-littleriscv


Disassembly of section .text:

00000000 <crt>:

.global crt
.section .text.prologue, "ax"
.align 4
crt:
	nop
   0:	00000013          	addi	zero,zero,0
	la ra, exit
   4:	00000097          	auipc	ra,0x0
   8:	09c08093          	addi	ra,ra,156 # a0 <exit>
	la sp, _sp
   c:	00010117          	auipc	sp,0x10
  10:	ff410113          	addi	sp,sp,-12 # 10000 <_sp>
	mv s0, sp
  14:	00010413          	addi	s0,sp,0
	la gp, __global_pointer$
  18:	00001197          	auipc	gp,0x1
  1c:	02818193          	addi	gp,gp,40 # 1040 <__global_pointer$>
	li tp, 0
  20:	00000213          	addi	tp,zero,0
	li t0, 0
  24:	00000293          	addi	t0,zero,0
	li t1, 0
  28:	00000313          	addi	t1,zero,0
	li t2, 0
  2c:	00000393          	addi	t2,zero,0
	li s1, 0
  30:	00000493          	addi	s1,zero,0
	li a0, 0
  34:	00000513          	addi	a0,zero,0
	li a1, 0
  38:	00000593          	addi	a1,zero,0
	li a2, 0
  3c:	00000613          	addi	a2,zero,0
	li a3, 0
  40:	00000693          	addi	a3,zero,0
	li a4, 0
  44:	00000713          	addi	a4,zero,0
	li a5, 0
  48:	00000793          	addi	a5,zero,0
	li a6, 0
  4c:	00000813          	addi	a6,zero,0
	li a7, 0
  50:	00000893          	addi	a7,zero,0
	li s2, 0
  54:	00000913          	addi	s2,zero,0
	li s3, 0
  58:	00000993          	addi	s3,zero,0
	li s4, 0
  5c:	00000a13          	addi	s4,zero,0
	li s5, 0
  60:	00000a93          	addi	s5,zero,0
	li s6, 0
  64:	00000b13          	addi	s6,zero,0
	li s7, 0
  68:	00000b93          	addi	s7,zero,0
	li s8, 0
  6c:	00000c13          	addi	s8,zero,0
	li s9, 0
  70:	00000c93          	addi	s9,zero,0
	li s10, 0
  74:	00000d13          	addi	s10,zero,0
	li s11, 0
  78:	00000d93          	addi	s11,zero,0
	li t3, 0
  7c:	00000e13          	addi	t3,zero,0
	li t4, 0
  80:	00000e93          	addi	t4,zero,0
	li t5, 0
  84:	00000f13          	addi	t5,zero,0
	li t6, 0
  88:	00000f93          	addi	t6,zero,0
	j main
  8c:	6240006f          	jal	zero,6b0 <main>
	...

000000a0 <exit>:

.global exit
.section .text
.align 4
exit:
	la sp, _sp
  a0:	00010117          	auipc	sp,0x10
  a4:	f6010113          	addi	sp,sp,-160 # 10000 <_sp>
	sw a0, -8(sp)
  a8:	fea12c23          	sw	a0,-8(sp)
	nop
  ac:	00000013          	addi	zero,zero,0
	wfi
  b0:	10500073          	wfi

000000b4 <tj_free>:
} Header;
static Header base; //empty list to get started
static Header *freep = NULL; //start of the free list


void tj_free(void *mem) {
  b4:	fd010113          	addi	sp,sp,-48
  b8:	02112623          	sw	ra,44(sp)
  bc:	02812423          	sw	s0,40(sp)
  c0:	03010413          	addi	s0,sp,48
  c4:	fca42e23          	sw	a0,-36(s0)
	//sanity check, we don't want to free memory that's not
	//in the heap
	if (mem < (void *)heap || mem > (void *)(heap + sizeof(heap)))
  c8:	fdc42703          	lw	a4,-36(s0)
  cc:	000017b7          	lui	a5,0x1
  d0:	88078793          	addi	a5,a5,-1920 # 880 <heap>
  d4:	00f76a63          	bltu	a4,a5,e8 <tj_free+0x34>
  d8:	000057b7          	lui	a5,0x5
  dc:	88078793          	addi	a5,a5,-1920 # 4880 <base>
  e0:	fdc42703          	lw	a4,-36(s0)
  e4:	00e7f863          	bgeu	a5,a4,f4 <tj_free+0x40>
		exit(1);
  e8:	00100513          	addi	a0,zero,1
  ec:	00000097          	auipc	ra,0x0
  f0:	fb4080e7          	jalr	ra,-76(ra) # a0 <exit>

	Header *bp, *p;
	bp = (Header *)mem - 1; //point to block header
  f4:	fdc42783          	lw	a5,-36(s0)
  f8:	ff878793          	addi	a5,a5,-8
  fc:	fef42423          	sw	a5,-24(s0)
	//scan the free list to see where the current block should sit in between
	for (p = freep; !(bp > p && bp < p->next); p = p->next) 
 100:	000057b7          	lui	a5,0x5
 104:	8887a783          	lw	a5,-1912(a5) # 4888 <freep>
 108:	fef42623          	sw	a5,-20(s0)
 10c:	03c0006f          	jal	zero,148 <tj_free+0x94>
		// self wrapped free list with only one entry
		//                  or you are just at the very beginning/end
		if (p >= p->next && (bp > p || bp < p->next))
 110:	fec42783          	lw	a5,-20(s0)
 114:	0007a783          	lw	a5,0(a5)
 118:	fec42703          	lw	a4,-20(s0)
 11c:	02f76063          	bltu	a4,a5,13c <tj_free+0x88>
 120:	fe842703          	lw	a4,-24(s0)
 124:	fec42783          	lw	a5,-20(s0)
 128:	02e7ee63          	bltu	a5,a4,164 <tj_free+0xb0>
 12c:	fec42783          	lw	a5,-20(s0)
 130:	0007a783          	lw	a5,0(a5)
 134:	fe842703          	lw	a4,-24(s0)
 138:	02f76663          	bltu	a4,a5,164 <tj_free+0xb0>
	for (p = freep; !(bp > p && bp < p->next); p = p->next) 
 13c:	fec42783          	lw	a5,-20(s0)
 140:	0007a783          	lw	a5,0(a5)
 144:	fef42623          	sw	a5,-20(s0)
 148:	fe842703          	lw	a4,-24(s0)
 14c:	fec42783          	lw	a5,-20(s0)
 150:	fce7f0e3          	bgeu	a5,a4,110 <tj_free+0x5c>
 154:	fec42783          	lw	a5,-20(s0)
 158:	0007a783          	lw	a5,0(a5)
 15c:	fe842703          	lw	a4,-24(s0)
 160:	faf778e3          	bgeu	a4,a5,110 <tj_free+0x5c>
			break; //freed block at start of end of the arena
		//we can merge the 2 free blocks if they are adjacent to each other
		//or we just can append a new entry into the free list
	if (bp + bp->size == p->next) { //join to upper nbr
 164:	fe842783          	lw	a5,-24(s0)
 168:	0047a783          	lw	a5,4(a5)
 16c:	00379793          	slli	a5,a5,0x3
 170:	fe842703          	lw	a4,-24(s0)
 174:	00f70733          	add	a4,a4,a5
 178:	fec42783          	lw	a5,-20(s0)
 17c:	0007a783          	lw	a5,0(a5)
 180:	02f71e63          	bne	a4,a5,1bc <tj_free+0x108>
		//merge if exactly adjacent
		bp->size += p->next->size;
 184:	fe842783          	lw	a5,-24(s0)
 188:	0047a703          	lw	a4,4(a5)
 18c:	fec42783          	lw	a5,-20(s0)
 190:	0007a783          	lw	a5,0(a5)
 194:	0047a783          	lw	a5,4(a5)
 198:	00f70733          	add	a4,a4,a5
 19c:	fe842783          	lw	a5,-24(s0)
 1a0:	00e7a223          	sw	a4,4(a5)
		bp->next = p->next->next;
 1a4:	fec42783          	lw	a5,-20(s0)
 1a8:	0007a783          	lw	a5,0(a5)
 1ac:	0007a703          	lw	a4,0(a5)
 1b0:	fe842783          	lw	a5,-24(s0)
 1b4:	00e7a023          	sw	a4,0(a5)
 1b8:	0140006f          	jal	zero,1cc <tj_free+0x118>
	} else
		bp->next = p->next; //insert bp after p in the linked list
 1bc:	fec42783          	lw	a5,-20(s0)
 1c0:	0007a703          	lw	a4,0(a5)
 1c4:	fe842783          	lw	a5,-24(s0)
 1c8:	00e7a023          	sw	a4,0(a5)
		//if p is freep which is base, then this will make the newly
		//allocated block point to base

	if (p + p->size == bp) { //join to lower nbr
 1cc:	fec42783          	lw	a5,-20(s0)
 1d0:	0047a783          	lw	a5,4(a5)
 1d4:	00379793          	slli	a5,a5,0x3
 1d8:	fec42703          	lw	a4,-20(s0)
 1dc:	00f707b3          	add	a5,a4,a5
 1e0:	fe842703          	lw	a4,-24(s0)
 1e4:	02f71a63          	bne	a4,a5,218 <tj_free+0x164>
		//merge if exactly adjacent
		p->size += bp->size;
 1e8:	fec42783          	lw	a5,-20(s0)
 1ec:	0047a703          	lw	a4,4(a5)
 1f0:	fe842783          	lw	a5,-24(s0)
 1f4:	0047a783          	lw	a5,4(a5)
 1f8:	00f70733          	add	a4,a4,a5
 1fc:	fec42783          	lw	a5,-20(s0)
 200:	00e7a223          	sw	a4,4(a5)
		p->next = bp->next;
 204:	fe842783          	lw	a5,-24(s0)
 208:	0007a703          	lw	a4,0(a5)
 20c:	fec42783          	lw	a5,-20(s0)
 210:	00e7a023          	sw	a4,0(a5)
 214:	0100006f          	jal	zero,224 <tj_free+0x170>
	} else //or just append to linked list
		p->next = bp; //again, if the free list is just the base
 218:	fec42783          	lw	a5,-20(s0)
 21c:	fe842703          	lw	a4,-24(s0)
 220:	00e7a023          	sw	a4,0(a5)
		//then effectively we just created a new entry
		//and make it point to the base which has a size of 0
	freep = p;
 224:	000057b7          	lui	a5,0x5
 228:	fec42703          	lw	a4,-20(s0)
 22c:	88e7a423          	sw	a4,-1912(a5) # 4888 <freep>
}
 230:	00000013          	addi	zero,zero,0
 234:	02c12083          	lw	ra,44(sp)
 238:	02812403          	lw	s0,40(sp)
 23c:	03010113          	addi	sp,sp,48
 240:	00008067          	jalr	zero,0(ra)

00000244 <getmoremem>:

static Header* getmoremem(unsigned int total_size) {
 244:	fd010113          	addi	sp,sp,-48
 248:	02112623          	sw	ra,44(sp)
 24c:	02812423          	sw	s0,40(sp)
 250:	03010413          	addi	s0,sp,48
 254:	fca42e23          	sw	a0,-36(s0)
	if (avail_mem < total_size) return NULL; //gg, we ran out of mem :P
 258:	000017b7          	lui	a5,0x1
 25c:	8647a783          	lw	a5,-1948(a5) # 864 <avail_mem>
 260:	fdc42703          	lw	a4,-36(s0)
 264:	00e7f663          	bgeu	a5,a4,270 <getmoremem+0x2c>
 268:	00000793          	addi	a5,zero,0
 26c:	0700006f          	jal	zero,2dc <getmoremem+0x98>
	Header* up = (Header *)next_index;
 270:	000017b7          	lui	a5,0x1
 274:	8607a783          	lw	a5,-1952(a5) # 860 <next_index>
 278:	fef42623          	sw	a5,-20(s0)
	next_index += total_size; //allocate the block
 27c:	000017b7          	lui	a5,0x1
 280:	8607a703          	lw	a4,-1952(a5) # 860 <next_index>
 284:	fdc42783          	lw	a5,-36(s0)
 288:	00f70733          	add	a4,a4,a5
 28c:	000017b7          	lui	a5,0x1
 290:	86e7a023          	sw	a4,-1952(a5) # 860 <next_index>
	avail_mem -= total_size; //deduct from avail mem;
 294:	000017b7          	lui	a5,0x1
 298:	8647a703          	lw	a4,-1948(a5) # 864 <avail_mem>
 29c:	fdc42783          	lw	a5,-36(s0)
 2a0:	40f70733          	sub	a4,a4,a5
 2a4:	000017b7          	lui	a5,0x1
 2a8:	86e7a223          	sw	a4,-1948(a5) # 864 <avail_mem>
	up->size = total_size - sizeof(Header); //set the size right
 2ac:	fdc42783          	lw	a5,-36(s0)
 2b0:	ff878713          	addi	a4,a5,-8
 2b4:	fec42783          	lw	a5,-20(s0)
 2b8:	00e7a223          	sw	a4,4(a5)
	tj_free((void *)(++up)); //append the new block to the free list first
 2bc:	fec42783          	lw	a5,-20(s0)
 2c0:	00878793          	addi	a5,a5,8
 2c4:	fef42623          	sw	a5,-20(s0)
 2c8:	fec42503          	lw	a0,-20(s0)
 2cc:	00000097          	auipc	ra,0x0
 2d0:	de8080e7          	jalr	ra,-536(ra) # b4 <tj_free>
	return freep;
 2d4:	000057b7          	lui	a5,0x5
 2d8:	8887a783          	lw	a5,-1912(a5) # 4888 <freep>
}
 2dc:	00078513          	addi	a0,a5,0
 2e0:	02c12083          	lw	ra,44(sp)
 2e4:	02812403          	lw	s0,40(sp)
 2e8:	03010113          	addi	sp,sp,48
 2ec:	00008067          	jalr	zero,0(ra)

000002f0 <tj_malloc>:

void *tj_malloc(unsigned int size) {
 2f0:	fd010113          	addi	sp,sp,-48
 2f4:	02112623          	sw	ra,44(sp)
 2f8:	02812423          	sw	s0,40(sp)
 2fc:	03010413          	addi	s0,sp,48
 300:	fca42e23          	sw	a0,-36(s0)
	//sanity check, so that you don't blow the memory space
	if (size > sizeof(heap)) return NULL;
 304:	fdc42703          	lw	a4,-36(s0)
 308:	000047b7          	lui	a5,0x4
 30c:	00e7f663          	bgeu	a5,a4,318 <tj_malloc+0x28>
 310:	00000793          	addi	a5,zero,0
 314:	15c0006f          	jal	zero,470 <tj_malloc+0x180>
	//we want strict word alignment just to make things easier
	//and so that we don't have improper alignment issues
	if ((size & 3) != 0) {
 318:	fdc42783          	lw	a5,-36(s0)
 31c:	0037f793          	andi	a5,a5,3
 320:	00078a63          	beq	a5,zero,334 <tj_malloc+0x44>
		size = size + 4 - (size & 3);
 324:	fdc42783          	lw	a5,-36(s0)
 328:	ffc7f793          	andi	a5,a5,-4
 32c:	00478793          	addi	a5,a5,4 # 4004 <__global_pointer$+0x2fc4>
 330:	fcf42e23          	sw	a5,-36(s0)
	}

	//we want to build a linked list of the existing blocks and free blocks
	Header *p, *prevp; //iterators
	
	unsigned int total_size = size + sizeof(Header); //need to include the header size as well
 334:	fdc42783          	lw	a5,-36(s0)
 338:	00878793          	addi	a5,a5,8
 33c:	fef42223          	sw	a5,-28(s0)
	//check the linked list
	prevp = freep;
 340:	000057b7          	lui	a5,0x5
 344:	8887a783          	lw	a5,-1912(a5) # 4888 <freep>
 348:	fef42423          	sw	a5,-24(s0)
	//if there's no linked list yet
	if (prevp == NULL) {
 34c:	fe842783          	lw	a5,-24(s0)
 350:	02079e63          	bne	a5,zero,38c <tj_malloc+0x9c>
		prevp = &base;
 354:	000057b7          	lui	a5,0x5
 358:	88078793          	addi	a5,a5,-1920 # 4880 <base>
 35c:	fef42423          	sw	a5,-24(s0)
		freep = prevp;
 360:	000057b7          	lui	a5,0x5
 364:	fe842703          	lw	a4,-24(s0)
 368:	88e7a423          	sw	a4,-1912(a5) # 4888 <freep>
		base.next = freep;
 36c:	000057b7          	lui	a5,0x5
 370:	8887a703          	lw	a4,-1912(a5) # 4888 <freep>
 374:	000057b7          	lui	a5,0x5
 378:	88078793          	addi	a5,a5,-1920 # 4880 <base>
 37c:	00e7a023          	sw	a4,0(a5)
		base.size = 0;
 380:	000057b7          	lui	a5,0x5
 384:	88078793          	addi	a5,a5,-1920 # 4880 <base>
 388:	0007a223          	sw	zero,4(a5)
	}
	//traverse through the linked list, note there's no stopping condition
	for (p = prevp->next; ;prevp = p, p = p->next) {
 38c:	fe842783          	lw	a5,-24(s0)
 390:	0007a783          	lw	a5,0(a5)
 394:	fef42623          	sw	a5,-20(s0)
		if (p->size >= size) { //big enough
 398:	fec42783          	lw	a5,-20(s0)
 39c:	0047a783          	lw	a5,4(a5)
 3a0:	fdc42703          	lw	a4,-36(s0)
 3a4:	08e7e263          	bltu	a5,a4,428 <tj_malloc+0x138>
			if (p->size == size) // exact size
 3a8:	fec42783          	lw	a5,-20(s0)
 3ac:	0047a783          	lw	a5,4(a5)
 3b0:	fdc42703          	lw	a4,-36(s0)
 3b4:	00f71c63          	bne	a4,a5,3cc <tj_malloc+0xdc>
				prevp->next = p->next; // just return that block
 3b8:	fec42783          	lw	a5,-20(s0)
 3bc:	0007a703          	lw	a4,0(a5)
 3c0:	fe842783          	lw	a5,-24(s0)
 3c4:	00e7a023          	sw	a4,0(a5)
 3c8:	0400006f          	jal	zero,408 <tj_malloc+0x118>
			else {
				p->size -= total_size; //break up the block
 3cc:	fec42783          	lw	a5,-20(s0)
 3d0:	0047a703          	lw	a4,4(a5)
 3d4:	fe442783          	lw	a5,-28(s0)
 3d8:	40f70733          	sub	a4,a4,a5
 3dc:	fec42783          	lw	a5,-20(s0)
 3e0:	00e7a223          	sw	a4,4(a5)
				p += p->size;
 3e4:	fec42783          	lw	a5,-20(s0)
 3e8:	0047a783          	lw	a5,4(a5)
 3ec:	00379793          	slli	a5,a5,0x3
 3f0:	fec42703          	lw	a4,-20(s0)
 3f4:	00f707b3          	add	a5,a4,a5
 3f8:	fef42623          	sw	a5,-20(s0)
				p->size = size;
 3fc:	fec42783          	lw	a5,-20(s0)
 400:	fdc42703          	lw	a4,-36(s0)
 404:	00e7a223          	sw	a4,4(a5)
			}
			freep = prevp;
 408:	000057b7          	lui	a5,0x5
 40c:	fe842703          	lw	a4,-24(s0)
 410:	88e7a423          	sw	a4,-1912(a5) # 4888 <freep>
#ifdef DEBUG
			printf("returned pointer is %i\n", (int)p + 1);
#endif
			return (void *)(++p);
 414:	fec42783          	lw	a5,-20(s0)
 418:	00878793          	addi	a5,a5,8
 41c:	fef42623          	sw	a5,-20(s0)
 420:	fec42783          	lw	a5,-20(s0)
 424:	04c0006f          	jal	zero,470 <tj_malloc+0x180>
		}
		if (p == freep) //wrapped around free list
 428:	000057b7          	lui	a5,0x5
 42c:	8887a783          	lw	a5,-1912(a5) # 4888 <freep>
 430:	fec42703          	lw	a4,-20(s0)
 434:	02f71263          	bne	a4,a5,458 <tj_malloc+0x168>
			if ((p = getmoremem(total_size)) == NULL) //if the heap runs out
 438:	fe442503          	lw	a0,-28(s0)
 43c:	00000097          	auipc	ra,0x0
 440:	e08080e7          	jalr	ra,-504(ra) # 244 <getmoremem>
 444:	fea42623          	sw	a0,-20(s0)
 448:	fec42783          	lw	a5,-20(s0)
 44c:	00079663          	bne	a5,zero,458 <tj_malloc+0x168>
				return NULL; //well, you got nothing left, gg
 450:	00000793          	addi	a5,zero,0
 454:	01c0006f          	jal	zero,470 <tj_malloc+0x180>
	for (p = prevp->next; ;prevp = p, p = p->next) {
 458:	fec42783          	lw	a5,-20(s0)
 45c:	fef42423          	sw	a5,-24(s0)
 460:	fec42783          	lw	a5,-20(s0)
 464:	0007a783          	lw	a5,0(a5)
 468:	fef42623          	sw	a5,-20(s0)
		if (p->size >= size) { //big enough
 46c:	f2dff06f          	jal	zero,398 <tj_malloc+0xa8>
	}
}
 470:	00078513          	addi	a0,a5,0
 474:	02c12083          	lw	ra,44(sp)
 478:	02812403          	lw	s0,40(sp)
 47c:	03010113          	addi	sp,sp,48
 480:	00008067          	jalr	zero,0(ra)

00000484 <tj_calloc>:

void *tj_calloc(unsigned int size) {
 484:	fd010113          	addi	sp,sp,-48
 488:	02112623          	sw	ra,44(sp)
 48c:	02812423          	sw	s0,40(sp)
 490:	03010413          	addi	s0,sp,48
 494:	fca42e23          	sw	a0,-36(s0)
	void *mem = tj_malloc(size);
 498:	fdc42503          	lw	a0,-36(s0)
 49c:	00000097          	auipc	ra,0x0
 4a0:	e54080e7          	jalr	ra,-428(ra) # 2f0 <tj_malloc>
 4a4:	fea42623          	sw	a0,-20(s0)
	memset(mem, 0, size);
 4a8:	fdc42603          	lw	a2,-36(s0)
 4ac:	00000593          	addi	a1,zero,0
 4b0:	fec42503          	lw	a0,-20(s0)
 4b4:	00000097          	auipc	ra,0x0
 4b8:	2b0080e7          	jalr	ra,688(ra) # 764 <memset>
	return mem;
 4bc:	fec42783          	lw	a5,-20(s0)
}
 4c0:	00078513          	addi	a0,a5,0
 4c4:	02c12083          	lw	ra,44(sp)
 4c8:	02812403          	lw	s0,40(sp)
 4cc:	03010113          	addi	sp,sp,48
 4d0:	00008067          	jalr	zero,0(ra)

000004d4 <newNode>:
  
} Node; 
  
// Function to Create A New Node 
Node* newNode(int d, int p) 
{ 
 4d4:	fd010113          	addi	sp,sp,-48
 4d8:	02112623          	sw	ra,44(sp)
 4dc:	02812423          	sw	s0,40(sp)
 4e0:	03010413          	addi	s0,sp,48
 4e4:	fca42e23          	sw	a0,-36(s0)
 4e8:	fcb42c23          	sw	a1,-40(s0)
    Node* temp = (Node*)tj_malloc(sizeof(Node)); 
 4ec:	00c00513          	addi	a0,zero,12
 4f0:	00000097          	auipc	ra,0x0
 4f4:	e00080e7          	jalr	ra,-512(ra) # 2f0 <tj_malloc>
 4f8:	fea42623          	sw	a0,-20(s0)
    temp->data = d; 
 4fc:	fec42783          	lw	a5,-20(s0)
 500:	fdc42703          	lw	a4,-36(s0)
 504:	00e7a023          	sw	a4,0(a5)
    temp->priority = p; 
 508:	fec42783          	lw	a5,-20(s0)
 50c:	fd842703          	lw	a4,-40(s0)
 510:	00e7a223          	sw	a4,4(a5)
    temp->next = NULL; 
 514:	fec42783          	lw	a5,-20(s0)
 518:	0007a423          	sw	zero,8(a5)
  
    return temp; 
 51c:	fec42783          	lw	a5,-20(s0)
} 
 520:	00078513          	addi	a0,a5,0
 524:	02c12083          	lw	ra,44(sp)
 528:	02812403          	lw	s0,40(sp)
 52c:	03010113          	addi	sp,sp,48
 530:	00008067          	jalr	zero,0(ra)

00000534 <peek>:
  
// Return the value at head 
int peek(Node** head) 
{ 
 534:	fe010113          	addi	sp,sp,-32
 538:	00812e23          	sw	s0,28(sp)
 53c:	02010413          	addi	s0,sp,32
 540:	fea42623          	sw	a0,-20(s0)
    return (*head)->data; 
 544:	fec42783          	lw	a5,-20(s0)
 548:	0007a783          	lw	a5,0(a5)
 54c:	0007a783          	lw	a5,0(a5)
} 
 550:	00078513          	addi	a0,a5,0
 554:	01c12403          	lw	s0,28(sp)
 558:	02010113          	addi	sp,sp,32
 55c:	00008067          	jalr	zero,0(ra)

00000560 <pop>:
  
// Removes the element with the 
// highest priority form the list 
void pop(Node** head) 
{ 
 560:	fd010113          	addi	sp,sp,-48
 564:	02112623          	sw	ra,44(sp)
 568:	02812423          	sw	s0,40(sp)
 56c:	03010413          	addi	s0,sp,48
 570:	fca42e23          	sw	a0,-36(s0)
    Node* temp = *head; 
 574:	fdc42783          	lw	a5,-36(s0)
 578:	0007a783          	lw	a5,0(a5)
 57c:	fef42623          	sw	a5,-20(s0)
    (*head) = (*head)->next; 
 580:	fdc42783          	lw	a5,-36(s0)
 584:	0007a783          	lw	a5,0(a5)
 588:	0087a703          	lw	a4,8(a5)
 58c:	fdc42783          	lw	a5,-36(s0)
 590:	00e7a023          	sw	a4,0(a5)
    tj_free(temp); 
 594:	fec42503          	lw	a0,-20(s0)
 598:	00000097          	auipc	ra,0x0
 59c:	b1c080e7          	jalr	ra,-1252(ra) # b4 <tj_free>
} 
 5a0:	00000013          	addi	zero,zero,0
 5a4:	02c12083          	lw	ra,44(sp)
 5a8:	02812403          	lw	s0,40(sp)
 5ac:	03010113          	addi	sp,sp,48
 5b0:	00008067          	jalr	zero,0(ra)

000005b4 <push>:
  
// Function to push according to priority 
void push(Node** head, int d, int p) 
{ 
 5b4:	fd010113          	addi	sp,sp,-48
 5b8:	02112623          	sw	ra,44(sp)
 5bc:	02812423          	sw	s0,40(sp)
 5c0:	03010413          	addi	s0,sp,48
 5c4:	fca42e23          	sw	a0,-36(s0)
 5c8:	fcb42c23          	sw	a1,-40(s0)
 5cc:	fcc42a23          	sw	a2,-44(s0)
    Node* start = (*head); 
 5d0:	fdc42783          	lw	a5,-36(s0)
 5d4:	0007a783          	lw	a5,0(a5)
 5d8:	fef42623          	sw	a5,-20(s0)
  
    // Create new Node 
    Node* temp = newNode(d, p); 
 5dc:	fd442583          	lw	a1,-44(s0)
 5e0:	fd842503          	lw	a0,-40(s0)
 5e4:	00000097          	auipc	ra,0x0
 5e8:	ef0080e7          	jalr	ra,-272(ra) # 4d4 <newNode>
 5ec:	fea42423          	sw	a0,-24(s0)
  
    // Special Case: The head of list has lesser 
    // priority than new node. So insert new 
    // node before head node and change head node. 
    if ((*head)->priority > p) { 
 5f0:	fdc42783          	lw	a5,-36(s0)
 5f4:	0007a783          	lw	a5,0(a5)
 5f8:	0047a783          	lw	a5,4(a5)
 5fc:	fd442703          	lw	a4,-44(s0)
 600:	02f75863          	bge	a4,a5,630 <push+0x7c>
  
        // Insert New Node before head 
        temp->next = *head; 
 604:	fdc42783          	lw	a5,-36(s0)
 608:	0007a703          	lw	a4,0(a5)
 60c:	fe842783          	lw	a5,-24(s0)
 610:	00e7a423          	sw	a4,8(a5)
        (*head) = temp; 
 614:	fdc42783          	lw	a5,-36(s0)
 618:	fe842703          	lw	a4,-24(s0)
 61c:	00e7a023          	sw	a4,0(a5)
        // Either at the ends of the list 
        // or at required position 
        temp->next = start->next; 
        start->next = temp; 
    } 
} 
 620:	04c0006f          	jal	zero,66c <push+0xb8>
            start = start->next; 
 624:	fec42783          	lw	a5,-20(s0)
 628:	0087a783          	lw	a5,8(a5)
 62c:	fef42623          	sw	a5,-20(s0)
        while (start->next != NULL && 
 630:	fec42783          	lw	a5,-20(s0)
 634:	0087a783          	lw	a5,8(a5)
 638:	00078c63          	beq	a5,zero,650 <push+0x9c>
               start->next->priority < p) { 
 63c:	fec42783          	lw	a5,-20(s0)
 640:	0087a783          	lw	a5,8(a5)
 644:	0047a783          	lw	a5,4(a5)
        while (start->next != NULL && 
 648:	fd442703          	lw	a4,-44(s0)
 64c:	fce7cce3          	blt	a5,a4,624 <push+0x70>
        temp->next = start->next; 
 650:	fec42783          	lw	a5,-20(s0)
 654:	0087a703          	lw	a4,8(a5)
 658:	fe842783          	lw	a5,-24(s0)
 65c:	00e7a423          	sw	a4,8(a5)
        start->next = temp; 
 660:	fec42783          	lw	a5,-20(s0)
 664:	fe842703          	lw	a4,-24(s0)
 668:	00e7a423          	sw	a4,8(a5)
} 
 66c:	00000013          	addi	zero,zero,0
 670:	02c12083          	lw	ra,44(sp)
 674:	02812403          	lw	s0,40(sp)
 678:	03010113          	addi	sp,sp,48
 67c:	00008067          	jalr	zero,0(ra)

00000680 <isEmpty>:
  
// Function to check is list is empty 
int isEmpty(Node** head) 
{ 
 680:	fe010113          	addi	sp,sp,-32
 684:	00812e23          	sw	s0,28(sp)
 688:	02010413          	addi	s0,sp,32
 68c:	fea42623          	sw	a0,-20(s0)
    return (*head) == NULL; 
 690:	fec42783          	lw	a5,-20(s0)
 694:	0007a783          	lw	a5,0(a5)
 698:	0017b793          	sltiu	a5,a5,1
 69c:	0ff7f793          	andi	a5,a5,255
} 
 6a0:	00078513          	addi	a0,a5,0
 6a4:	01c12403          	lw	s0,28(sp)
 6a8:	02010113          	addi	sp,sp,32
 6ac:	00008067          	jalr	zero,0(ra)

000006b0 <main>:
  
// Driver code 
int main() 
{ 
 6b0:	fe010113          	addi	sp,sp,-32
 6b4:	00112e23          	sw	ra,28(sp)
 6b8:	00812c23          	sw	s0,24(sp)
 6bc:	02010413          	addi	s0,sp,32
    // Create a Priority Queue 
    // 7->4->5->6 
    Node* pq = newNode(4, 1); 
 6c0:	00100593          	addi	a1,zero,1
 6c4:	00400513          	addi	a0,zero,4
 6c8:	00000097          	auipc	ra,0x0
 6cc:	e0c080e7          	jalr	ra,-500(ra) # 4d4 <newNode>
 6d0:	00050793          	addi	a5,a0,0
 6d4:	fef42623          	sw	a5,-20(s0)
    push(&pq, 5, 2); 
 6d8:	fec40793          	addi	a5,s0,-20
 6dc:	00200613          	addi	a2,zero,2
 6e0:	00500593          	addi	a1,zero,5
 6e4:	00078513          	addi	a0,a5,0
 6e8:	00000097          	auipc	ra,0x0
 6ec:	ecc080e7          	jalr	ra,-308(ra) # 5b4 <push>
    push(&pq, 6, 3); 
 6f0:	fec40793          	addi	a5,s0,-20
 6f4:	00300613          	addi	a2,zero,3
 6f8:	00600593          	addi	a1,zero,6
 6fc:	00078513          	addi	a0,a5,0
 700:	00000097          	auipc	ra,0x0
 704:	eb4080e7          	jalr	ra,-332(ra) # 5b4 <push>
    push(&pq, 7, 0); 
 708:	fec40793          	addi	a5,s0,-20
 70c:	00000613          	addi	a2,zero,0
 710:	00700593          	addi	a1,zero,7
 714:	00078513          	addi	a0,a5,0
 718:	00000097          	auipc	ra,0x0
 71c:	e9c080e7          	jalr	ra,-356(ra) # 5b4 <push>
  
    while (!isEmpty(&pq)) { 
 720:	0140006f          	jal	zero,734 <main+0x84>
#ifdef DEBUG
        printf("%d ", peek(&pq)); 
#endif
        pop(&pq); 
 724:	fec40793          	addi	a5,s0,-20
 728:	00078513          	addi	a0,a5,0
 72c:	00000097          	auipc	ra,0x0
 730:	e34080e7          	jalr	ra,-460(ra) # 560 <pop>
    while (!isEmpty(&pq)) { 
 734:	fec40793          	addi	a5,s0,-20
 738:	00078513          	addi	a0,a5,0
 73c:	00000097          	auipc	ra,0x0
 740:	f44080e7          	jalr	ra,-188(ra) # 680 <isEmpty>
 744:	00050793          	addi	a5,a0,0
 748:	fc078ee3          	beq	a5,zero,724 <main+0x74>
    } 
  
    return 0; 
 74c:	00000793          	addi	a5,zero,0
}
 750:	00078513          	addi	a0,a5,0
 754:	01c12083          	lw	ra,28(sp)
 758:	01812403          	lw	s0,24(sp)
 75c:	02010113          	addi	sp,sp,32
 760:	00008067          	jalr	zero,0(ra)

00000764 <memset>:
 764:	433d                	c.li	t1,15
 766:	872a                	c.mv	a4,a0
 768:	02c37363          	bgeu	t1,a2,78e <memset+0x2a>
 76c:	00f77793          	andi	a5,a4,15
 770:	efbd                	c.bnez	a5,7ee <memset+0x8a>
 772:	e5ad                	c.bnez	a1,7dc <memset+0x78>
 774:	ff067693          	andi	a3,a2,-16
 778:	8a3d                	c.andi	a2,15
 77a:	96ba                	c.add	a3,a4
 77c:	c30c                	c.sw	a1,0(a4)
 77e:	c34c                	c.sw	a1,4(a4)
 780:	c70c                	c.sw	a1,8(a4)
 782:	c74c                	c.sw	a1,12(a4)
 784:	0741                	c.addi	a4,16
 786:	fed76be3          	bltu	a4,a3,77c <memset+0x18>
 78a:	e211                	c.bnez	a2,78e <memset+0x2a>
 78c:	8082                	c.jr	ra
 78e:	40c306b3          	sub	a3,t1,a2
 792:	068a                	c.slli	a3,0x2
 794:	00000297          	auipc	t0,0x0
 798:	9696                	c.add	a3,t0
 79a:	00a68067          	jalr	zero,10(a3)
 79e:	00b70723          	sb	a1,14(a4)
 7a2:	00b706a3          	sb	a1,13(a4)
 7a6:	00b70623          	sb	a1,12(a4)
 7aa:	00b705a3          	sb	a1,11(a4)
 7ae:	00b70523          	sb	a1,10(a4)
 7b2:	00b704a3          	sb	a1,9(a4)
 7b6:	00b70423          	sb	a1,8(a4)
 7ba:	00b703a3          	sb	a1,7(a4)
 7be:	00b70323          	sb	a1,6(a4)
 7c2:	00b702a3          	sb	a1,5(a4)
 7c6:	00b70223          	sb	a1,4(a4)
 7ca:	00b701a3          	sb	a1,3(a4)
 7ce:	00b70123          	sb	a1,2(a4)
 7d2:	00b700a3          	sb	a1,1(a4)
 7d6:	00b70023          	sb	a1,0(a4)
 7da:	8082                	c.jr	ra
 7dc:	0ff5f593          	andi	a1,a1,255
 7e0:	00859693          	slli	a3,a1,0x8
 7e4:	8dd5                	c.or	a1,a3
 7e6:	01059693          	slli	a3,a1,0x10
 7ea:	8dd5                	c.or	a1,a3
 7ec:	b761                	c.j	774 <memset+0x10>
 7ee:	00279693          	slli	a3,a5,0x2
 7f2:	00000297          	auipc	t0,0x0
 7f6:	9696                	c.add	a3,t0
 7f8:	8286                	c.mv	t0,ra
 7fa:	fa8680e7          	jalr	ra,-88(a3)
 7fe:	8096                	c.mv	ra,t0
 800:	17c1                	c.addi	a5,-16
 802:	8f1d                	c.sub	a4,a5
 804:	963e                	c.add	a2,a5
 806:	f8c374e3          	bgeu	t1,a2,78e <memset+0x2a>
 80a:	b7a5                	c.j	772 <memset+0xe>
	...
