
program.debug_backtrack.elf:     file format elf32-littleriscv


Disassembly of section .text:

00000000 <crt>:

.global crt
.section .text.prologue, "ax"
.align 4
crt:
	nop
   0:	00000013          	addi	x0,x0,0
	la ra, exit
   4:	00000097          	auipc	x1,0x0
   8:	09c08093          	addi	x1,x1,156 # a0 <exit>
	la sp, _sp
   c:	00010117          	auipc	x2,0x10
  10:	ff410113          	addi	x2,x2,-12 # 10000 <_sp>
	mv s0, sp
  14:	00010413          	addi	x8,x2,0
	la gp, __global_pointer$
  18:	00001197          	auipc	x3,0x1
  1c:	c6818193          	addi	x3,x3,-920 # c80 <__global_pointer$>
	li tp, 0
  20:	00000213          	addi	x4,x0,0
	li t0, 0
  24:	00000293          	addi	x5,x0,0
	li t1, 0
  28:	00000313          	addi	x6,x0,0
	li t2, 0
  2c:	00000393          	addi	x7,x0,0
	li s1, 0
  30:	00000493          	addi	x9,x0,0
	li a0, 0
  34:	00000513          	addi	x10,x0,0
	li a1, 0
  38:	00000593          	addi	x11,x0,0
	li a2, 0
  3c:	00000613          	addi	x12,x0,0
	li a3, 0
  40:	00000693          	addi	x13,x0,0
	li a4, 0
  44:	00000713          	addi	x14,x0,0
	li a5, 0
  48:	00000793          	addi	x15,x0,0
	li a6, 0
  4c:	00000813          	addi	x16,x0,0
	li a7, 0
  50:	00000893          	addi	x17,x0,0
	li s2, 0
  54:	00000913          	addi	x18,x0,0
	li s3, 0
  58:	00000993          	addi	x19,x0,0
	li s4, 0
  5c:	00000a13          	addi	x20,x0,0
	li s5, 0
  60:	00000a93          	addi	x21,x0,0
	li s6, 0
  64:	00000b13          	addi	x22,x0,0
	li s7, 0
  68:	00000b93          	addi	x23,x0,0
	li s8, 0
  6c:	00000c13          	addi	x24,x0,0
	li s9, 0
  70:	00000c93          	addi	x25,x0,0
	li s10, 0
  74:	00000d13          	addi	x26,x0,0
	li s11, 0
  78:	00000d93          	addi	x27,x0,0
	li t3, 0
  7c:	00000e13          	addi	x28,x0,0
	li t4, 0
  80:	00000e93          	addi	x29,x0,0
	li t5, 0
  84:	00000f13          	addi	x30,x0,0
	li t6, 0
  88:	00000f93          	addi	x31,x0,0
	j main
  8c:	3840006f          	jal	x0,410 <main>
	...

000000a0 <exit>:

.global exit
.section .text
.align 4
exit:
	la sp, _sp
  a0:	00010117          	auipc	x2,0x10
  a4:	f6010113          	addi	x2,x2,-160 # 10000 <_sp>
	sw a0, -8(sp)
  a8:	fea12c23          	sw	x10,-8(x2)
	nop
  ac:	00000013          	addi	x0,x0,0
	wfi
  b0:	10500073          	wfi

000000b4 <isSafe>:

int solveKTUtil(int x, int y, int movei, int sol[N][N],int xMove[],  int yMove[]);

/* A utility function to check if i,j are valid indexes
   for N*N chessboard */
int isSafe(int x, int y, int sol[N][N]) {
  b4:	fe010113          	addi	x2,x2,-32
  b8:	00812e23          	sw	x8,28(x2)
  bc:	02010413          	addi	x8,x2,32
  c0:	fea42623          	sw	x10,-20(x8)
  c4:	feb42423          	sw	x11,-24(x8)
  c8:	fec42223          	sw	x12,-28(x8)
    return ( x >= 0 && x < N && y >= 0 && y < N && sol[x][y] == -1);
  cc:	fec42783          	lw	x15,-20(x8)
  d0:	0607c263          	blt	x15,x0,134 <isSafe+0x80>
  d4:	fec42703          	lw	x14,-20(x8)
  d8:	00200793          	addi	x15,x0,2
  dc:	04e7cc63          	blt	x15,x14,134 <isSafe+0x80>
  e0:	fe842783          	lw	x15,-24(x8)
  e4:	0407c863          	blt	x15,x0,134 <isSafe+0x80>
  e8:	fe842703          	lw	x14,-24(x8)
  ec:	00200793          	addi	x15,x0,2
  f0:	04e7c263          	blt	x15,x14,134 <isSafe+0x80>
  f4:	fec42703          	lw	x14,-20(x8)
  f8:	00070793          	addi	x15,x14,0
  fc:	00179793          	slli	x15,x15,0x1
 100:	00e787b3          	add	x15,x15,x14
 104:	00279793          	slli	x15,x15,0x2
 108:	00078713          	addi	x14,x15,0
 10c:	fe442783          	lw	x15,-28(x8)
 110:	00e78733          	add	x14,x15,x14
 114:	fe842783          	lw	x15,-24(x8)
 118:	00279793          	slli	x15,x15,0x2
 11c:	00f707b3          	add	x15,x14,x15
 120:	0007a703          	lw	x14,0(x15)
 124:	fff00793          	addi	x15,x0,-1
 128:	00f71663          	bne	x14,x15,134 <isSafe+0x80>
 12c:	00100793          	addi	x15,x0,1
 130:	0080006f          	jal	x0,138 <isSafe+0x84>
 134:	00000793          	addi	x15,x0,0
}
 138:	00078513          	addi	x10,x15,0
 13c:	01c12403          	lw	x8,28(x2)
 140:	02010113          	addi	x2,x2,32
 144:	00008067          	jalr	x0,0(x1)

00000148 <solveKT>:
   Backtracking.  This function mainly uses solveKTUtil()
   to solve the problem. It returns false if no complete
   tour is possible, otherwise return true and prints the
   tour.
*/
int solveKT() {
 148:	f8010113          	addi	x2,x2,-128
 14c:	06112e23          	sw	x1,124(x2)
 150:	06812c23          	sw	x8,120(x2)
 154:	08010413          	addi	x8,x2,128
    int sol[N][N];

    /* Initialization of solution matrix */
    for (int x = 0; x < N; x++)
 158:	fe042623          	sw	x0,-20(x8)
 15c:	05c0006f          	jal	x0,1b8 <solveKT+0x70>
        for (int y = 0; y < N; y++)
 160:	fe042423          	sw	x0,-24(x8)
 164:	03c0006f          	jal	x0,1a0 <solveKT+0x58>
            sol[x][y] = -1;
 168:	fec42703          	lw	x14,-20(x8)
 16c:	00070793          	addi	x15,x14,0
 170:	00179793          	slli	x15,x15,0x1
 174:	00e787b3          	add	x15,x15,x14
 178:	fe842703          	lw	x14,-24(x8)
 17c:	00e787b3          	add	x15,x15,x14
 180:	00279793          	slli	x15,x15,0x2
 184:	ff078793          	addi	x15,x15,-16
 188:	008787b3          	add	x15,x15,x8
 18c:	fff00713          	addi	x14,x0,-1
 190:	fce7aa23          	sw	x14,-44(x15)
        for (int y = 0; y < N; y++)
 194:	fe842783          	lw	x15,-24(x8)
 198:	00178793          	addi	x15,x15,1
 19c:	fef42423          	sw	x15,-24(x8)
 1a0:	fe842703          	lw	x14,-24(x8)
 1a4:	00200793          	addi	x15,x0,2
 1a8:	fce7d0e3          	bge	x15,x14,168 <solveKT+0x20>
    for (int x = 0; x < N; x++)
 1ac:	fec42783          	lw	x15,-20(x8)
 1b0:	00178793          	addi	x15,x15,1
 1b4:	fef42623          	sw	x15,-20(x8)
 1b8:	fec42703          	lw	x14,-20(x8)
 1bc:	00200793          	addi	x15,x0,2
 1c0:	fae7d0e3          	bge	x15,x14,160 <solveKT+0x18>

    /* xMove[] and yMove[] define next move of Knight.
       xMove[] is for next value of x coordinate
       yMove[] is for next value of y coordinate */
    int xMove[8] = {  2, 1, -1, -2, -2, -1,  1,  2 };
 1c4:	000007b7          	lui	x15,0x0
 1c8:	48078793          	addi	x15,x15,1152 # 480 <main+0x70>
 1cc:	0007a883          	lw	x17,0(x15)
 1d0:	0047a803          	lw	x16,4(x15)
 1d4:	0087a503          	lw	x10,8(x15)
 1d8:	00c7a583          	lw	x11,12(x15)
 1dc:	0107a603          	lw	x12,16(x15)
 1e0:	0147a683          	lw	x13,20(x15)
 1e4:	0187a703          	lw	x14,24(x15)
 1e8:	01c7a783          	lw	x15,28(x15)
 1ec:	fb142223          	sw	x17,-92(x8)
 1f0:	fb042423          	sw	x16,-88(x8)
 1f4:	faa42623          	sw	x10,-84(x8)
 1f8:	fab42823          	sw	x11,-80(x8)
 1fc:	fac42a23          	sw	x12,-76(x8)
 200:	fad42c23          	sw	x13,-72(x8)
 204:	fae42e23          	sw	x14,-68(x8)
 208:	fcf42023          	sw	x15,-64(x8)
    int yMove[8] = {  1, 2,  2,  1, -1, -2, -2, -1 };
 20c:	000007b7          	lui	x15,0x0
 210:	4a078793          	addi	x15,x15,1184 # 4a0 <main+0x90>
 214:	0007a883          	lw	x17,0(x15)
 218:	0047a803          	lw	x16,4(x15)
 21c:	0087a503          	lw	x10,8(x15)
 220:	00c7a583          	lw	x11,12(x15)
 224:	0107a603          	lw	x12,16(x15)
 228:	0147a683          	lw	x13,20(x15)
 22c:	0187a703          	lw	x14,24(x15)
 230:	01c7a783          	lw	x15,28(x15)
 234:	f9142223          	sw	x17,-124(x8)
 238:	f9042423          	sw	x16,-120(x8)
 23c:	f8a42623          	sw	x10,-116(x8)
 240:	f8b42823          	sw	x11,-112(x8)
 244:	f8c42a23          	sw	x12,-108(x8)
 248:	f8d42c23          	sw	x13,-104(x8)
 24c:	f8e42e23          	sw	x14,-100(x8)
 250:	faf42023          	sw	x15,-96(x8)

    // Since the Knight is initially at the first block
    sol[0][0]  = 0;
 254:	fc042223          	sw	x0,-60(x8)

    /* Start from 0,0 and explore all tours using
       solveKTUtil() */
    if (solveKTUtil(0, 0, 1, sol, xMove, yMove) == 0) {
 258:	f8440793          	addi	x15,x8,-124
 25c:	fa440713          	addi	x14,x8,-92
 260:	fc440693          	addi	x13,x8,-60
 264:	00100613          	addi	x12,x0,1
 268:	00000593          	addi	x11,x0,0
 26c:	00000513          	addi	x10,x0,0
 270:	00000097          	auipc	x1,0x0
 274:	030080e7          	jalr	x1,48(x1) # 2a0 <solveKTUtil>
 278:	00050793          	addi	x15,x10,0
 27c:	00079663          	bne	x15,x0,288 <solveKT+0x140>
        //printf("Solution does not exist");
        return 0;
 280:	00000793          	addi	x15,x0,0
 284:	0080006f          	jal	x0,28c <solveKT+0x144>
    }
    else
        //printSolution(sol);

    return 1;
 288:	00100793          	addi	x15,x0,1
}
 28c:	00078513          	addi	x10,x15,0
 290:	07c12083          	lw	x1,124(x2)
 294:	07812403          	lw	x8,120(x2)
 298:	08010113          	addi	x2,x2,128
 29c:	00008067          	jalr	x0,0(x1)

000002a0 <solveKTUtil>:

/* A recursive utility function to solve Knight Tour
   problem */
int solveKTUtil(int x, int y, int movei, int sol[N][N], int xMove[N], int yMove[N]) {
 2a0:	fc010113          	addi	x2,x2,-64
 2a4:	02112e23          	sw	x1,60(x2)
 2a8:	02812c23          	sw	x8,56(x2)
 2ac:	04010413          	addi	x8,x2,64
 2b0:	fca42e23          	sw	x10,-36(x8)
 2b4:	fcb42c23          	sw	x11,-40(x8)
 2b8:	fcc42a23          	sw	x12,-44(x8)
 2bc:	fcd42823          	sw	x13,-48(x8)
 2c0:	fce42623          	sw	x14,-52(x8)
 2c4:	fcf42423          	sw	x15,-56(x8)
   int k, next_x, next_y;
   if (movei == N*N)
 2c8:	fd442703          	lw	x14,-44(x8)
 2cc:	00900793          	addi	x15,x0,9
 2d0:	00f71663          	bne	x14,x15,2dc <solveKTUtil+0x3c>
       return 1;
 2d4:	00100793          	addi	x15,x0,1
 2d8:	1240006f          	jal	x0,3fc <solveKTUtil+0x15c>

   /* Try all next moves from the current coordinate x, y */
   for (k = 0; k < 8; k++) {
 2dc:	fe042623          	sw	x0,-20(x8)
 2e0:	10c0006f          	jal	x0,3ec <solveKTUtil+0x14c>
       next_x = x + xMove[k];
 2e4:	fec42783          	lw	x15,-20(x8)
 2e8:	00279793          	slli	x15,x15,0x2
 2ec:	fcc42703          	lw	x14,-52(x8)
 2f0:	00f707b3          	add	x15,x14,x15
 2f4:	0007a783          	lw	x15,0(x15)
 2f8:	fdc42703          	lw	x14,-36(x8)
 2fc:	00f707b3          	add	x15,x14,x15
 300:	fef42423          	sw	x15,-24(x8)
       next_y = y + yMove[k];
 304:	fec42783          	lw	x15,-20(x8)
 308:	00279793          	slli	x15,x15,0x2
 30c:	fc842703          	lw	x14,-56(x8)
 310:	00f707b3          	add	x15,x14,x15
 314:	0007a783          	lw	x15,0(x15)
 318:	fd842703          	lw	x14,-40(x8)
 31c:	00f707b3          	add	x15,x14,x15
 320:	fef42223          	sw	x15,-28(x8)
       if (isSafe(next_x, next_y, sol)) {
 324:	fd042603          	lw	x12,-48(x8)
 328:	fe442583          	lw	x11,-28(x8)
 32c:	fe842503          	lw	x10,-24(x8)
 330:	00000097          	auipc	x1,0x0
 334:	d84080e7          	jalr	x1,-636(x1) # b4 <isSafe>
 338:	00050793          	addi	x15,x10,0
 33c:	0a078263          	beq	x15,x0,3e0 <solveKTUtil+0x140>
         sol[next_x][next_y] = movei;
 340:	fe842703          	lw	x14,-24(x8)
 344:	00070793          	addi	x15,x14,0
 348:	00179793          	slli	x15,x15,0x1
 34c:	00e787b3          	add	x15,x15,x14
 350:	00279793          	slli	x15,x15,0x2
 354:	00078713          	addi	x14,x15,0
 358:	fd042783          	lw	x15,-48(x8)
 35c:	00e78733          	add	x14,x15,x14
 360:	fe442783          	lw	x15,-28(x8)
 364:	00279793          	slli	x15,x15,0x2
 368:	00f707b3          	add	x15,x14,x15
 36c:	fd442703          	lw	x14,-44(x8)
 370:	00e7a023          	sw	x14,0(x15)
         if (solveKTUtil(next_x, next_y, movei+1, sol, xMove, yMove) == 1)
 374:	fd442783          	lw	x15,-44(x8)
 378:	00178613          	addi	x12,x15,1
 37c:	fc842783          	lw	x15,-56(x8)
 380:	fcc42703          	lw	x14,-52(x8)
 384:	fd042683          	lw	x13,-48(x8)
 388:	fe442583          	lw	x11,-28(x8)
 38c:	fe842503          	lw	x10,-24(x8)
 390:	00000097          	auipc	x1,0x0
 394:	f10080e7          	jalr	x1,-240(x1) # 2a0 <solveKTUtil>
 398:	00050713          	addi	x14,x10,0
 39c:	00100793          	addi	x15,x0,1
 3a0:	00f71663          	bne	x14,x15,3ac <solveKTUtil+0x10c>
             return 1;
 3a4:	00100793          	addi	x15,x0,1
 3a8:	0540006f          	jal	x0,3fc <solveKTUtil+0x15c>
         else
             sol[next_x][next_y] = -1;// backtracking
 3ac:	fe842703          	lw	x14,-24(x8)
 3b0:	00070793          	addi	x15,x14,0
 3b4:	00179793          	slli	x15,x15,0x1
 3b8:	00e787b3          	add	x15,x15,x14
 3bc:	00279793          	slli	x15,x15,0x2
 3c0:	00078713          	addi	x14,x15,0
 3c4:	fd042783          	lw	x15,-48(x8)
 3c8:	00e78733          	add	x14,x15,x14
 3cc:	fe442783          	lw	x15,-28(x8)
 3d0:	00279793          	slli	x15,x15,0x2
 3d4:	00f707b3          	add	x15,x14,x15
 3d8:	fff00713          	addi	x14,x0,-1
 3dc:	00e7a023          	sw	x14,0(x15)
   for (k = 0; k < 8; k++) {
 3e0:	fec42783          	lw	x15,-20(x8)
 3e4:	00178793          	addi	x15,x15,1
 3e8:	fef42623          	sw	x15,-20(x8)
 3ec:	fec42703          	lw	x14,-20(x8)
 3f0:	00700793          	addi	x15,x0,7
 3f4:	eee7d8e3          	bge	x15,x14,2e4 <solveKTUtil+0x44>
       }
   }

   return 0;
 3f8:	00000793          	addi	x15,x0,0
}
 3fc:	00078513          	addi	x10,x15,0
 400:	03c12083          	lw	x1,60(x2)
 404:	03812403          	lw	x8,56(x2)
 408:	04010113          	addi	x2,x2,64
 40c:	00008067          	jalr	x0,0(x1)

00000410 <main>:

/* Driver program to test above functions */
int main()
{
 410:	ff010113          	addi	x2,x2,-16
 414:	00112623          	sw	x1,12(x2)
 418:	00812423          	sw	x8,8(x2)
 41c:	01010413          	addi	x8,x2,16
    solveKT();
 420:	00000097          	auipc	x1,0x0
 424:	d28080e7          	jalr	x1,-728(x1) # 148 <solveKT>
    return 0;
 428:	00000793          	addi	x15,x0,0
}
 42c:	00078513          	addi	x10,x15,0
 430:	00c12083          	lw	x1,12(x2)
 434:	00812403          	lw	x8,8(x2)
 438:	01010113          	addi	x2,x2,16
 43c:	00008067          	jalr	x0,0(x1)
	...
